(lp0
(lp1
I228
aI185
aI80
aa(lp2
I226
aI183
aI78
aa(lp3
I230
aI188
aI82
aa(lp4
I243
aI193
aI71
aa(lp5
I241
aI199
aI73
aa(lp6
I236
aI173
aI64
aa(lp7
I237
aI187
aI69
aa(lp8
I242
aI191
aI70
aa(lp9
I246
aI202
aI74
aa(lp10
I244
aI200
aI73
aa(lp11
I232
aI184
aI99
aa(lp12
I237
aI183
aI83
aa(lp13
I240
aI187
aI85
aa(lp14
I228
aI189
aI101
aa(lp15
I229
aI191
aI97
aa(lp16
I241
aI199
aI73
aa(lp17
I240
aI198
aI71
aa(lp18
I241
aI199
aI72
aa(lp19
I246
aI202
aI75
aa(lp20
I239
aI196
aI72
aa(lp21
I230
aI196
aI87
aa(lp22
I209
aI184
aI106
aa(lp23
I212
aI185
aI104
aa(lp24
I227
aI191
aI85
aa(lp25
I233
aI198
aI85
aa(lp26
I193
aI182
aI135
aa(lp27
I214
aI181
aI89
aa(lp28
I226
aI199
aI90
aa(lp29
I225
aI182
aI70
aa(lp30
I223
aI179
aI69
aa(lp31
I201
aI181
aI122
aa(lp32
I202
aI181
aI130
aa(lp33
I242
aI198
aI73
aa(lp34
I230
aI114
aI43
aa(lp35
I236
aI202
aI100
aa(lp36
I233
aI189
aI70
aa(lp37
I224
aI183
aI80
aa(lp38
I239
aI194
aI80
aa(lp39
I236
aI196
aI129
aa(lp40
I192
aI162
aI67
aa(lp41
I234
aI195
aI73
aa(lp42
I226
aI183
aI67
aa(lp43
I231
aI189
aI70
aa(lp44
I240
aI196
aI71
aa(lp45
I242
aI198
aI73
aa(lp46
I237
aI194
aI71
aa(lp47
I145
aI78
aI163
aa(lp48
I149
aI87
aI164
aa(lp49
I243
aI200
aI73
aa(lp50
I233
aI196
aI98
aa(lp51
I243
aI200
aI74
aa(lp52
I246
aI204
aI74
aa(lp53
I241
aI199
aI72
aa(lp54
I249
aI206
aI74
aa(lp55
I219
aI195
aI87
aa(lp56
I240
aI198
aI72
aa(lp57
I245
aI203
aI75
aa(lp58
I151
aI128
aI91
aa(lp59
I181
aI147
aI130
aa(lp60
I123
aI129
aI129
aa(lp61
I190
aI181
aI73
aa(lp62
I82
aI72
aI62
aa(lp63
I211
aI172
aI143
aa(lp64
I148
aI112
aI91
aa(lp65
I135
aI100
aI80
aa(lp66
I141
aI120
aI101
aa(lp67
I160
aI105
aI81
aa(lp68
I204
aI169
aI141
aa(lp69
I179
aI157
aI141
aa(lp70
I195
aI164
aI116
aa(lp71
I182
aI176
aI155
aa(lp72
I187
aI154
aI95
aa(lp73
I194
aI162
aI66
aa(lp74
I191
aI159
aI65
aa(lp75
I201
aI149
aI54
aa(lp76
I215
aI169
aI59
aa(lp77
I211
aI173
aI61
aa(lp78
I202
aI170
aI79
aa(lp79
I199
aI173
aI78
aa(lp80
I177
aI163
aI94
aa(lp81
I217
aI178
aI64
aa(lp82
I183
aI81
aI64
aa(lp83
I172
aI75
aI60
aa(lp84
I161
aI134
aI92
aa(lp85
I160
aI133
aI89
aa(lp86
I164
aI137
aI94
aa(lp87
I151
aI151
aI151
aa(lp88
I128
aI142
aI142
aa(lp89
I143
aI109
aI77
aa(lp90
I248
aI211
aI72
aa(lp91
I253
aI232
aI43
aa(lp92
I249
aI231
aI153
aa(lp93
I251
aI240
aI166
aa(lp94
I251
aI170
aI96
aa(lp95
I217
aI43
aI26
aa(lp96
I138
aI213
aI251
aa(lp97
I138
aI213
aI252
aa(lp98
I0
aI58
aI157
aa(lp99
I199
aI216
aI241
aa(lp100
I220
aI179
aI145
aa(lp101
I174
aI172
aI167
aa(lp102
I230
aI193
aI158
aa(lp103
I203
aI132
aI149
aa(lp104
I170
aI72
aI92
aa(lp105
I220
aI182
aI148
aa(lp106
I224
aI188
aI155
aa(lp107
I220
aI186
aI153
aa(lp108
I221
aI185
aI150
aa(lp109
I222
aI182
aI146
aa(lp110
I221
aI182
aI146
aa(lp111
I235
aI207
aI174
aa(lp112
I233
aI205
aI172
aa(lp113
I235
aI207
aI175
aa(lp114
I223
aI196
aI164
aa(lp115
I223
aI195
aI164
aa(lp116
I222
aI194
aI162
aa(lp117
I222
aI194
aI163
aa(lp118
I230
aI201
aI167
aa(lp119
I148
aI149
aI167
aa(lp120
I222
aI181
aI145
aa(lp121
I228
aI196
aI163
aa(lp122
I227
aI190
aI153
aa(lp123
I95
aI95
aI114
aa(lp124
I100
aI85
aI106
aa(lp125
I173
aI33
aI23
aa(lp126
I131
aI90
aI98
aa(lp127
I140
aI102
aI100
aa(lp128
I128
aI109
aI100
aa(lp129
I174
aI102
aI105
aa(lp130
I175
aI114
aI115
aa(lp131
I180
aI114
aI136
aa(lp132
I154
aI128
aI91
aa(lp133
I197
aI127
aI140
aa(lp134
I179
aI112
aI120
aa(lp135
I169
aI107
aI103
aa(lp136
I181
aI119
aI119
aa(lp137
I178
aI122
aI111
aa(lp138
I164
aI102
aI94
aa(lp139
I219
aI164
aI162
aa(lp140
I163
aI133
aI120
aa(lp141
I171
aI110
aI105
aa(lp142
I181
aI118
aI117
aa(lp143
I95
aI106
aI114
aa(lp144
I90
aI85
aI66
aa(lp145
I217
aI172
aI76
aa(lp146
I147
aI153
aI86
aa(lp147
I191
aI191
aI190
aa(lp148
I94
aI63
aI54
aa(lp149
I202
aI182
aI143
aa(lp150
I195
aI62
aI49
aa(lp151
I169
aI138
aI80
aa(lp152
I112
aI138
aI172
aa(lp153
I127
aI154
aI176
aa(lp154
I172
aI110
aI148
aa(lp155
I18
aI161
aI149
aa(lp156
I90
aI189
aI236
aa(lp157
I66
aI79
aI143
aa(lp158
I200
aI132
aI42
aa(lp159
I229
aI78
aI153
aa(lp160
I110
aI92
aI89
aa(lp161
I145
aI105
aI69
aa(lp162
I223
aI179
aI116
aa(lp163
I223
aI125
aI166
aa(lp164
I140
aI153
aI164
aa(lp165
I217
aI90
aI160
aa(lp166
I235
aI81
aI118
aa(lp167
I220
aI142
aI116
aa(lp168
I251
aI221
aI108
aa(lp169
I73
aI152
aI244
aa(lp170
I198
aI120
aI244
aa(lp171
I118
aI216
aI97
aa(lp172
I215
aI84
aI69
aa(lp173
I247
aI108
aI189
aa(lp174
I246
aI108
aI188
aa(lp175
I249
aI109
aI190
aa(lp176
I245
aI113
aI159
aa(lp177
I240
aI105
aI182
aa(lp178
I196
aI117
aI200
aa(lp179
I227
aI181
aI172
aa(lp180
I214
aI15
aI61
aa(lp181
I129
aI164
aI169
aa(lp182
I158
aI215
aI246
aa(lp183
I88
aI111
aI137
aa(lp184
I79
aI100
aI126
aa(lp185
I221
aI221
aI221
aa(lp186
I178
aI27
aI30
aa(lp187
I245
aI245
aI245
aa(lp188
I241
aI177
aI53
aa(lp189
I205
aI141
aI35
aa(lp190
I183
aI184
aI193
aa(lp191
I85
aI199
aI47
aa(lp192
I184
aI169
aI152
aa(lp193
I147
aI126
aI67
aa(lp194
I217
aI181
aI75
aa(lp195
I189
aI176
aI179
aa(lp196
I212
aI165
aI145
aa(lp197
I163
aI152
aI154
aa(lp198
I24
aI133
aI62
aa(lp199
I193
aI159
aI60
aa(lp200
I148
aI134
aI131
aa(lp201
I168
aI130
aI61
aa(lp202
I217
aI163
aI173
aa(lp203
I196
aI124
aI142
aa(lp204
I180
aI159
aI145
aa(lp205
I99
aI83
aI69
aa(lp206
I162
aI137
aI98
aa(lp207
I141
aI116
aI76
aa(lp208
I126
aI109
aI67
aa(lp209
I208
aI193
aI164
aa(lp210
I175
aI162
aI166
aa(lp211
I158
aI157
aI157
aa(lp212
I126
aI127
aI115
aa(lp213
I140
aI153
aI149
aa(lp214
I231
aI194
aI70
aa(lp215
I201
aI165
aI51
aa(lp216
I197
aI180
aI122
aa(lp217
I217
aI189
aI172
aa(lp218
I0
aI139
aI61
aa(lp219
I89
aI145
aI71
aa(lp220
I142
aI147
aI43
aa(lp221
I134
aI117
aI42
aa(lp222
I61
aI61
aI61
aa(lp223
I138
aI70
aI35
aa(lp224
I167
aI125
aI76
aa(lp225
I165
aI84
aI89
aa(lp226
I201
aI187
aI185
aa(lp227
I159
aI192
aI119
aa(lp228
I132
aI168
aI199
aa(lp229
I19
aI158
aI168
aa(lp230
I70
aI149
aI184
aa(lp231
I146
aI164
aI187
aa(lp232
I136
aI129
aI127
aa(lp233
I223
aI217
aI189
aa(lp234
I154
aI145
aI143
aa(lp235
I92
aI82
aI83
aa(lp236
I182
aI126
aI56
aa(lp237
I233
aI229
aI228
aa(lp238
I77
aI139
aI90
aa(lp239
I102
aI103
aI33
aa(lp240
I234
aI233
aI218
aa(lp241
I228
aI214
aI212
aa(lp242
I222
aI186
aI128
aa(lp243
I231
aI194
aI164
aa(lp244
I238
aI234
aI234
aa(lp245
I192
aI134
aI75
aa(lp246
I81
aI142
aI88
aa(lp247
I164
aI141
aI112
aa(lp248
I106
aI144
aI100
aa(lp249
I214
aI175
aI116
aa(lp250
I215
aI174
aI113
aa(lp251
I186
aI150
aI95
aa(lp252
I227
aI196
aI166
aa(lp253
I190
aI182
aI176
aa(lp254
I198
aI35
aI39
aa(lp255
I205
aI146
aI118
aa(lp256
I219
aI162
aI176
aa(lp257
I159
aI103
aI126
aa(lp258
I85
aI195
aI55
aa(lp259
I176
aI61
aI30
aa(lp260
I176
aI144
aI30
aa(lp261
I220
aI104
aI117
aa(lp262
I229
aI108
aI77
aa(lp263
I128
aI183
aI55
aa(lp264
I205
aI141
aI35
aa(lp265
I134
aI170
aI95
aa(lp266
I209
aI196
aI55
aa(lp267
I207
aI122
aI95
aa(lp268
I83
aI151
aI56
aa(lp269
I76
aI148
aI51
aa(lp270
I107
aI125
aI17
aa(lp271
I124
aI145
aI25
aa(lp272
I147
aI80
aI47
aa(lp273
I85
aI199
aI47
aa(lp274
I213
aI170
aI42
aa(lp275
I103
aI139
aI170
aa(lp276
I239
aI218
aI102
aa(lp277
I105
aI108
aI124
aa(lp278
I79
aI81
aI96
aa(lp279
I115
aI113
aI103
aa(lp280
I162
aI154
aI111
aa(lp281
I213
aI201
aI129
aa(lp282
I245
aI230
aI139
aa(lp283
I214
aI204
aI135
aa(lp284
I163
aI159
aI126
aa(lp285
I109
aI109
aI105
aa(lp286
I237
aI215
aI106
aa(lp287
I238
aI216
aI108
aa(lp288
I249
aI228
aI107
aa(lp289
I100
aI168
aI126
aa(lp290
I68
aI156
aI155
aa(lp291
I77
aI161
aI151
aa(lp292
I179
aI100
aI64
aa(lp293
I75
aI87
aI127
aa(lp294
I73
aI113
aI130
aa(lp295
I247
aI232
aI164
aa(lp296
I223
aI218
aI210
aa(lp297
I183
aI184
aI193
aa(lp298
I42
aI121
aI235
aa(lp299
I192
aI212
aI218
aa(lp300
I123
aI174
aI178
aa(lp301
I85
aI103
aI130
aa(lp302
I132
aI150
aI111
aa(lp303
I225
aI138
aI133
aa(lp304
I128
aI83
aI83
aa(lp305
I158
aI38
aI54
aa(lp306
I66
aI62
aI60
aa(lp307
I157
aI151
aI174
aa(lp308
I87
aI123
aI127
aa(lp309
I78
aI110
aI128
aa(lp310
I208
aI200
aI205
aa(lp311
I117
aI140
aI147
aa(lp312
I212
aI135
aI28
aa(lp313
I185
aI177
aI180
aa(lp314
I192
aI136
aI121
aa(lp315
I122
aI149
aI40
aa(lp316
I198
aI117
aI63
aa(lp317
I154
aI95
aI51
aa(lp318
I196
aI137
aI72
aa(lp319
I193
aI161
aI79
aa(lp320
I238
aI76
aI95
aa(lp321
I231
aI203
aI200
aa(lp322
I145
aI109
aI143
aa(lp323
I43
aI43
aI43
aa(lp324
I153
aI159
aI167
aa(lp325
I154
aI159
aI170
aa(lp326
I92
aI94
aI99
aa(lp327
I224
aI225
aI220
aa(lp328
I235
aI222
aI179
aa(lp329
I161
aI156
aI137
aa(lp330
I153
aI156
aI161
aa(lp331
I111
aI160
aI206
aa(lp332
I62
aI66
aI65
aa(lp333
I74
aI74
aI74
aa(lp334
I112
aI116
aI109
aa(lp335
I207
aI202
aI181
aa(lp336
I146
aI146
aI146
aa(lp337
I106
aI92
aI71
aa(lp338
I159
aI136
aI91
aa(lp339
I129
aI129
aI130
aa(lp340
I129
aI129
aI130
aa(lp341
I130
aI130
aI130
aa(lp342
I152
aI106
aI100
aa(lp343
I200
aI167
aI119
aa(lp344
I200
aI133
aI90
aa(lp345
I186
aI152
aI75
aa(lp346
I189
aI152
aI69
aa(lp347
I176
aI143
aI126
aa(lp348
I172
aI137
aI119
aa(lp349
I151
aI69
aI60
aa(lp350
I172
aI172
aI172
aa(lp351
I235
aI208
aI155
aa(lp352
I231
aI204
aI150
aa(lp353
I185
aI172
aI149
aa(lp354
I211
aI173
aI114
aa(lp355
I225
aI165
aI69
aa(lp356
I78
aI78
aI78
aa(lp357
I242
aI237
aI216
aa(lp358
I148
aI151
aI154
aa(lp359
I247
aI216
aI104
aa(lp360
I247
aI212
aI98
aa(lp361
I41
aI41
aI41
aa(lp362
I127
aI189
aI134
aa(lp363
I78
aI78
aI78
aa(lp364
I171
aI171
aI171
aa(lp365
I177
aI174
aI172
aa(lp366
I165
aI166
aI166
aa(lp367
I196
aI196
aI196
aa(lp368
I178
aI180
aI183
aa(lp369
I139
aI139
aI139
aa(lp370
I146
aI118
aI101
aa(lp371
I186
aI134
aI72
aa(lp372
I182
aI169
aI150
aa(lp373
I97
aI100
aI110
aa(lp374
I81
aI84
aI91
aa(lp375
I185
aI185
aI185
aa(lp376
I214
aI144
aI57
aa(lp377
I186
aI125
aI123
aa(lp378
I186
aI161
aI89
aa(lp379
I176
aI163
aI139
aa(lp380
I184
aI177
aI150
aa(lp381
I192
aI182
aI178
aa(lp382
I191
aI199
aI174
aa(lp383
I190
aI183
aI155
aa(lp384
I200
aI195
aI165
aa(lp385
I63
aI76
aI82
aa(lp386
I188
aI196
aI223
aa(lp387
I187
aI194
aI213
aa(lp388
I187
aI192
aI211
aa(lp389
I222
aI212
aI209
aa(lp390
I222
aI222
aI222
aa(lp391
I189
aI146
aI84
aa(lp392
I93
aI136
aI178
aa(lp393
I100
aI146
aI187
aa(lp394
I123
aI133
aI151
aa(lp395
I124
aI129
aI142
aa(lp396
I189
aI82
aI64
aa(lp397
I169
aI132
aI91
aa(lp398
I218
aI210
aI191
aa(lp399
I226
aI226
aI226
aa(lp400
I222
aI222
aI222
aa(lp401
I219
aI222
aI224
aa(lp402
I193
aI200
aI205
aa(lp403
I223
aI215
aI216
aa(lp404
I212
aI218
aI231
aa(lp405
I216
aI191
aI161
aa(lp406
I215
aI205
aI193
aa(lp407
I198
aI162
aI162
aa(lp408
I176
aI143
aI142
aa(lp409
I187
aI186
aI186
aa(lp410
I178
aI186
aI194
aa(lp411
I164
aI173
aI181
aa(lp412
I185
aI42
aI27
aa(lp413
I135
aI135
aI135
aa(lp414
I141
aI153
aI175
aa(lp415
I148
aI159
aI182
aa(lp416
I177
aI63
aI61
aa(lp417
I128
aI164
aI73
aa(lp418
I67
aI127
aI171
aa(lp419
I216
aI136
aI50
aa(lp420
I134
aI134
aI134
aa(lp421
I218
aI188
aI125
aa(lp422
I223
aI198
aI53
aa(lp423
I132
aI137
aI100
aa(lp424
I173
aI178
aI188
aa(lp425
I216
aI206
aI200
aa(lp426
I204
aI112
aI101
aa(lp427
I180
aI181
aI181
aa(lp428
I170
aI171
aI173
aa(lp429
I186
aI186
aI186
aa(lp430
I194
aI156
aI99
aa(lp431
I130
aI133
aI132
aa(lp432
I91
aI92
aI93
aa(lp433
I187
aI187
aI187
aa(lp434
I25
aI25
aI25
aa(lp435
I134
aI132
aI208
aa(lp436
I61
aI61
aI61
aa(lp437
I159
aI159
aI161
aa(lp438
I179
aI105
aI60
aa(lp439
I183
aI155
aI56
aa(lp440
I197
aI167
aI75
aa(lp441
I182
aI110
aI47
aa(lp442
I126
aI100
aI157
aa(lp443
I69
aI68
aI68
aa(lp444
I154
aI143
aI134
aa(lp445
I140
aI81
aI81
aa(lp446
I210
aI176
aI155
aa(lp447
I197
aI195
aI195
aa(lp448
I199
aI124
aI132
aa(lp449
I143
aI99
aI95
aa(lp450
I171
aI87
aI33
aa(lp451
I142
aI142
aI142
aa(lp452
I192
aI182
aI181
aa(lp453
I175
aI213
aI74
aa(lp454
I79
aI79
aI79
aa(lp455
I200
aI138
aI56
aa(lp456
I107
aI106
aI106
aa(lp457
I115
aI126
aI22
aa(lp458
I161
aI132
aI97
aa(lp459
I126
aI156
aI91
aa(lp460
I126
aI126
aI126
aa(lp461
I101
aI96
aI66
aa(lp462
I171
aI136
aI74
aa(lp463
I11
aI222
aI176
aa(lp464
I205
aI202
aI190
aa(lp465
I62
aI188
aI193
aa(lp466
I73
aI158
aI138
aa(lp467
I144
aI171
aI196
aa(lp468
I166
aI159
aI148
aa(lp469
I178
aI177
aI150
aa(lp470
I211
aI191
aI134
aa(lp471
I217
aI226
aI210
aa(lp472
I220
aI181
aI122
aa(lp473
I220
aI178
aI113
aa(lp474
I219
aI220
aI193
aa(lp475
I197
aI153
aI83
aa(lp476
I155
aI83
aI92
aa(lp477
I200
aI204
aI210
aa(lp478
I205
aI130
aI71
aa(lp479
I188
aI125
aI60
aa(lp480
I217
aI140
aI58
aa(lp481
I184
aI128
aI90
aa(lp482
I205
aI135
aI78
aa(lp483
I200
aI155
aI110
aa(lp484
I172
aI148
aI129
aa(lp485
I214
aI138
aI82
aa(lp486
I157
aI120
aI105
aa(lp487
I196
aI81
aI65
aa(lp488
I241
aI218
aI230
aa(lp489
I154
aI155
aI143
aa(lp490
I149
aI94
aI37
aa(lp491
I198
aI198
aI198
aa(lp492
I190
aI171
aI136
aa(lp493
I189
aI188
aI176
aa(lp494
I162
aI137
aI112
aa(lp495
I199
aI179
aI166
aa(lp496
I106
aI101
aI81
aa(lp497
I213
aI178
aI119
aa(lp498
I102
aI59
aI24
aa(lp499
I188
aI156
aI106
aa(lp500
I228
aI202
aI134
aa(lp501
I209
aI200
aI187
aa(lp502
I210
aI161
aI170
aa(lp503
I211
aI200
aI198
aa(lp504
I214
aI181
aI162
aa(lp505
I183
aI144
aI95
aa(lp506
I169
aI98
aI82
aa(lp507
I137
aI170
aI170
aa(lp508
I173
aI145
aI109
aa(lp509
I223
aI163
aI52
aa(lp510
I207
aI79
aI67
aa(lp511
I136
aI169
aI73
aa(lp512
I229
aI146
aI59
aa(lp513
I232
aI214
aI72
aa(lp514
I165
aI62
aI61
aa(lp515
I201
aI79
aI190
aa(lp516
I228
aI127
aI127
aa(lp517
I189
aI85
aI60
aa(lp518
I218
aI127
aI102
aa(lp519
I198
aI193
aI131
aa(lp520
I204
aI181
aI97
aa(lp521
I200
aI210
aI85
aa(lp522
I151
aI139
aI25
aa(lp523
I205
aI167
aI85
aa(lp524
I141
aI100
aI139
aa(lp525
I220
aI108
aI63
aa(lp526
I186
aI183
aI103
aa(lp527
I174
aI178
aI159
aa(lp528
I132
aI143
aI98
aa(lp529
I181
aI180
aI115
aa(lp530
I162
aI173
aI184
aa(lp531
I176
aI166
aI151
aa(lp532
I173
aI160
aI162
aa(lp533
I125
aI152
aI157
aa(lp534
I108
aI132
aI145
aa(lp535
I169
aI127
aI154
aa(lp536
I157
aI135
aI133
aa(lp537
I170
aI134
aI142
aa(lp538
I160
aI152
aI144
aa(lp539
I150
aI157
aI167
aa(lp540
I162
aI151
aI140
aa(lp541
I203
aI128
aI48
aa(lp542
I142
aI82
aI39
aa(lp543
I153
aI183
aI177
aa(lp544
I169
aI142
aI140
aa(lp545
I95
aI114
aI78
aa(lp546
I172
aI160
aI159
aa(lp547
I189
aI189
aI198
aa(lp548
I95
aI147
aI203
aa(lp549
I140
aI161
aI177
aa(lp550
I157
aI125
aI118
aa(lp551
I224
aI142
aI71
aa(lp552
I42
aI81
aI109
aa(lp553
I116
aI168
aI183
aa(lp554
I91
aI56
aI116
aa(lp555
I139
aI176
aI197
aa(lp556
I146
aI161
aI197
aa(lp557
I102
aI149
aI147
aa(lp558
I174
aI167
aI174
aa(lp559
I132
aI141
aI153
aa(lp560
I207
aI114
aI53
aa(lp561
I201
aI157
aI47
aa(lp562
I90
aI141
aI161
aa(lp563
I81
aI111
aI143
aa(lp564
I165
aI123
aI114
aa(lp565
I170
aI185
aI194
aa(lp566
I114
aI124
aI155
aa(lp567
I142
aI122
aI132
aa(lp568
I123
aI87
aI70
aa(lp569
I87
aI97
aI95
aa(lp570
I97
aI109
aI108
aa(lp571
I131
aI144
aI135
aa(lp572
I167
aI173
aI175
aa(lp573
I149
aI159
aI176
aa(lp574
I154
aI162
aI200
aa(lp575
I107
aI125
aI155
aa(lp576
I92
aI104
aI105
aa(lp577
I139
aI151
aI186
aa(lp578
I158
aI162
aI144
aa(lp579
I163
aI171
aI153
aa(lp580
I130
aI156
aI190
aa(lp581
I186
aI160
aI115
aa(lp582
I160
aI177
aI161
aa(lp583
I62
aI119
aI163
aa(lp584
I80
aI144
aI194
aa(lp585
I173
aI77
aI71
aa(lp586
I204
aI170
aI75
aa(lp587
I171
aI173
aI114
aa(lp588
I49
aI110
aI88
aa(lp589
I190
aI152
aI68
aa(lp590
I224
aI99
aI99
aa(lp591
I142
aI141
aI142
aa(lp592
I161
aI170
aI174
aa(lp593
I185
aI106
aI96
aa(lp594
I179
aI150
aI149
aa(lp595
I148
aI152
aI158
aa(lp596
I89
aI104
aI123
aa(lp597
I126
aI123
aI84
aa(lp598
I155
aI154
aI123
aa(lp599
I135
aI113
aI121
aa(lp600
I165
aI150
aI95
aa(lp601
I173
aI149
aI179
aa(lp602
I169
aI165
aI181
aa(lp603
I188
aI185
aI114
aa(lp604
I84
aI78
aI65
aa(lp605
I97
aI91
aI78
aa(lp606
I224
aI193
aI57
aa(lp607
I146
aI135
aI61
aa(lp608
I108
aI169
aI99
aa(lp609
I161
aI69
aI46
aa(lp610
I184
aI82
aI48
aa(lp611
I106
aI87
aI89
aa(lp612
I207
aI40
aI23
aa(lp613
I149
aI149
aI149
aa(lp614
I206
aI135
aI127
aa(lp615
I164
aI152
aI128
aa(lp616
I207
aI57
aI49
aa(lp617
I237
aI82
aI68
aa(lp618
I155
aI178
aI199
aa(lp619
I144
aI169
aI193
aa(lp620
I151
aI175
aI197
aa(lp621
I150
aI176
aI199
aa(lp622
I150
aI175
aI199
aa(lp623
I150
aI176
aI199
aa(lp624
I150
aI176
aI199
aa(lp625
I151
aI175
aI197
aa(lp626
I145
aI170
aI193
aa(lp627
I142
aI168
aI192
aa(lp628
I152
aI177
aI200
aa(lp629
I152
aI177
aI200
aa(lp630
I154
aI178
aI201
aa(lp631
I154
aI178
aI201
aa(lp632
I152
aI176
aI197
aa(lp633
I152
aI176
aI197
aa(lp634
I153
aI177
aI201
aa(lp635
I146
aI173
aI197
aa(lp636
I146
aI173
aI197
aa(lp637
I151
aI175
aI197
aa(lp638
I149
aI173
aI195
aa(lp639
I149
aI173
aI195
aa(lp640
I148
aI173
aI195
aa(lp641
I143
aI169
aI192
aa(lp642
I153
aI178
aI201
aa(lp643
I153
aI178
aI201
aa(lp644
I156
aI179
aI199
aa(lp645
I155
aI178
aI198
aa(lp646
I142
aI168
aI191
aa(lp647
I142
aI168
aI192
aa(lp648
I146
aI173
aI198
aa(lp649
I149
aI174
aI199
aa(lp650
I152
aI177
aI201
aa(lp651
I153
aI178
aI201
aa(lp652
I151
aI176
aI200
aa(lp653
I148
aI172
aI195
aa(lp654
I144
aI170
aI196
aa(lp655
I147
aI172
aI194
aa(lp656
I148
aI174
aI199
aa(lp657
I154
aI178
aI202
aa(lp658
I161
aI183
aI204
aa(lp659
I155
aI180
aI203
aa(lp660
I60
aI138
aI234
aa(lp661
I230
aI117
aI210
aa(lp662
I254
aI176
aI97
aa(lp663
I81
aI150
aI236
aa(lp664
I66
aI138
aI233
aa(lp665
I142
aI170
aI196
aa(lp666
I67
aI142
aI235
aa(lp667
I73
aI144
aI234
aa(lp668
I84
aI151
aI236
aa(lp669
I88
aI198
aI231
aa(lp670
I71
aI142
aI234
aa(lp671
I96
aI157
aI236
aa(lp672
I80
aI145
aI234
aa(lp673
I76
aI145
aI234
aa(lp674
I219
aI93
aI84
aa(lp675
I218
aI91
aI82
aa(lp676
I186
aI140
aI211
aa(lp677
I220
aI44
aI27
aa(lp678
I172
aI108
aI93
aa(lp679
I129
aI67
aI50
aa(lp680
I131
aI71
aI54
aa(lp681
I128
aI68
aI51
aa(lp682
I121
aI62
aI45
aa(lp683
I129
aI69
aI52
aa(lp684
I170
aI153
aI15
aa(lp685
I218
aI103
aI78
aa(lp686
I77
aI198
aI100
aa(lp687
I75
aI196
aI98
aa(lp688
I88
aI205
aI92
aa(lp689
I61
aI198
aI66
aa(lp690
I254
aI173
aI92
aa(lp691
I234
aI141
aI218
aa(lp692
I254
aI170
aI84
aa(lp693
I254
aI173
aI95
aa(lp694
I254
aI179
aI102
aa(lp695
I222
aI90
aI76
aa(lp696
I223
aI98
aI84
aa(lp697
I226
aI118
aI106
aa(lp698
I222
aI94
aI81
aa(lp699
I125
aI205
aI231
aa(lp700
I60
aI153
aI226
aa(lp701
I51
aI159
aI65
aa(lp702
I183
aI112
aI204
aa(lp703
I182
aI114
aI203
aa(lp704
I184
aI117
aI205
aa(lp705
I181
aI112
aI202
aa(lp706
I184
aI117
aI204
aa(lp707
I184
aI116
aI205
aa(lp708
I186
aI124
aI205
aa(lp709
I182
aI112
aI204
aa(lp710
I181
aI111
aI203
aa(lp711
I185
aI118
aI205
aa(lp712
I182
aI116
aI203
aa(lp713
I183
aI113
aI204
aa(lp714
I186
aI120
aI206
aa(lp715
I183
aI120
aI203
aa(lp716
I89
aI146
aI189
aa(lp717
I65
aI195
aI91
aa(lp718
I26
aI26
aI26
aa(lp719
I47
aI47
aI47
aa(lp720
I220
aI43
aI25
aa(lp721
I222
aI46
aI28
aa(lp722
I222
aI44
aI27
aa(lp723
I224
aI44
aI25
aa(lp724
I224
aI45
aI26
aa(lp725
I208
aI208
aI208
aa(lp726
I208
aI208
aI208
aa(lp727
I220
aI43
aI25
aa(lp728
I46
aI46
aI46
aa(lp729
I45
aI45
aI45
aa(lp730
I47
aI47
aI47
aa(lp731
I47
aI47
aI47
aa(lp732
I46
aI46
aI46
aa(lp733
I38
aI38
aI38
aa(lp734
I224
aI224
aI224
aa(lp735
I222
aI222
aI222
aa(lp736
I222
aI222
aI222
aa(lp737
I222
aI222
aI222
aa(lp738
I222
aI222
aI222
aa(lp739
I222
aI222
aI222
aa(lp740
I222
aI222
aI222
aa(lp741
I223
aI223
aI223
aa(lp742
I222
aI222
aI222
aa(lp743
I223
aI223
aI223
aa(lp744
I222
aI222
aI222
aa(lp745
I223
aI223
aI223
aa(lp746
I222
aI222
aI222
aa(lp747
I222
aI222
aI222
aa(lp748
I222
aI222
aI222
aa(lp749
I222
aI222
aI222
aa(lp750
I222
aI222
aI222
aa(lp751
I222
aI222
aI222
aa(lp752
I225
aI225
aI225
aa(lp753
I223
aI223
aI223
aa(lp754
I223
aI223
aI223
aa(lp755
I223
aI223
aI223
aa(lp756
I222
aI222
aI222
aa(lp757
I222
aI222
aI222
aa(lp758
I38
aI38
aI38
aa(lp759
I41
aI41
aI41
aa(lp760
I39
aI39
aI39
aa(lp761
I768
aI768
aI768
aa(lp762
I202
aI0
aI0
aa(lp763
I150
aI150
aI150
aa(lp764
I137
aI137
aI137
aa(lp765
I42
aI42
aI42
aa(lp766
I226
aI210
aI85
aa(lp767
I62
aI62
aI62
aa(lp768
I222
aI222
aI222
aa(lp769
I65
aI65
aI65
aa(lp770
I217
aI217
aI217
aa(lp771
I68
aI68
aI68
aa(lp772
I226
aI226
aI226
aa(lp773
I224
aI72
aI69
aa(lp774
I114
aI114
aI114
aa(lp775
I156
aI156
aI156
aa(lp776
I75
aI75
aI75
aa(lp777
I225
aI225
aI225
aa(lp778
I248
aI82
aI68
aa(lp779
I69
aI143
aI241
aa(lp780
I212
aI62
aI62
aa(lp781
I230
aI230
aI230
aa(lp782
I62
aI62
aI62
aa(lp783
I249
aI177
aI89
aa(lp784
I89
aI146
aI247
aa(lp785
I249
aI176
aI88
aa(lp786
I89
aI146
aI248
aa(lp787
I768
aI768
aI768
aa(lp788
I768
aI768
aI768
aa(lp789
I768
aI768
aI768
aa(lp790
I768
aI768
aI768
aa(lp791
I768
aI768
aI768
aa(lp792
I768
aI768
aI768
aa(lp793
I768
aI768
aI768
aa(lp794
I768
aI768
aI768
aa(lp795
I768
aI768
aI768
aa(lp796
I768
aI768
aI768
aa(lp797
I768
aI768
aI768
aa(lp798
I768
aI768
aI768
aa(lp799
I768
aI768
aI768
aa(lp800
I768
aI768
aI768
aa(lp801
I768
aI768
aI768
aa(lp802
I768
aI768
aI768
aa(lp803
I768
aI768
aI768
aa(lp804
I768
aI768
aI768
aa(lp805
I768
aI768
aI768
aa(lp806
I768
aI768
aI768
aa(lp807
I768
aI768
aI768
aa(lp808
I768
aI768
aI768
aa(lp809
I768
aI768
aI768
aa(lp810
I768
aI768
aI768
aa(lp811
I768
aI768
aI768
aa(lp812
I768
aI768
aI768
aa(lp813
I768
aI768
aI768
aa(lp814
I768
aI768
aI768
aa(lp815
I768
aI768
aI768
aa(lp816
I768
aI768
aI768
aa(lp817
I768
aI768
aI768
aa(lp818
I768
aI768
aI768
aa(lp819
I768
aI768
aI768
aa(lp820
I768
aI768
aI768
aa(lp821
I768
aI768
aI768
aa(lp822
I768
aI768
aI768
aa(lp823
I768
aI768
aI768
aa(lp824
I768
aI768
aI768
aa(lp825
I768
aI768
aI768
aa(lp826
I768
aI768
aI768
aa(lp827
I768
aI768
aI768
aa(lp828
I768
aI768
aI768
aa(lp829
I768
aI768
aI768
aa(lp830
I768
aI768
aI768
aa(lp831
I768
aI768
aI768
aa(lp832
I768
aI768
aI768
aa(lp833
I768
aI768
aI768
aa(lp834
I768
aI768
aI768
aa(lp835
I768
aI768
aI768
aa(lp836
I768
aI768
aI768
aa(lp837
I768
aI768
aI768
aa(lp838
I768
aI768
aI768
aa(lp839
I768
aI768
aI768
aa(lp840
I768
aI768
aI768
aa(lp841
I768
aI768
aI768
aa(lp842
I768
aI768
aI768
aa(lp843
I768
aI768
aI768
aa(lp844
I768
aI768
aI768
aa(lp845
I768
aI768
aI768
aa(lp846
I768
aI768
aI768
aa(lp847
I768
aI768
aI768
aa(lp848
I768
aI768
aI768
aa(lp849
I768
aI768
aI768
aa(lp850
I768
aI768
aI768
aa(lp851
I768
aI768
aI768
aa.