((lp0
(lp1
I228
aI185
aI80
aa(lp2
I226
aI183
aI78
aa(lp3
I230
aI188
aI82
aa(lp4
I243
aI193
aI71
aa(lp5
I241
aI199
aI73
aa(lp6
I236
aI173
aI64
aa(lp7
I237
aI187
aI69
aa(lp8
I242
aI191
aI70
aa(lp9
I246
aI202
aI74
aa(lp10
I244
aI200
aI73
aa(lp11
I232
aI184
aI99
aa(lp12
I237
aI183
aI83
aa(lp13
I240
aI187
aI85
aa(lp14
I228
aI189
aI101
aa(lp15
I229
aI191
aI97
aa(lp16
I241
aI199
aI73
aa(lp17
I240
aI198
aI71
aa(lp18
I241
aI199
aI72
aa(lp19
I246
aI202
aI75
aa(lp20
I239
aI196
aI72
aa(lp21
I230
aI196
aI87
aa(lp22
I209
aI184
aI106
aa(lp23
I212
aI185
aI104
aa(lp24
I227
aI191
aI85
aa(lp25
I233
aI198
aI85
aa(lp26
I193
aI182
aI135
aa(lp27
I214
aI181
aI89
aa(lp28
I226
aI199
aI90
aa(lp29
I225
aI182
aI70
aa(lp30
I223
aI179
aI69
aa(lp31
I201
aI181
aI122
aa(lp32
I202
aI181
aI130
aa(lp33
I242
aI198
aI73
aa(lp34
I230
aI114
aI43
aa(lp35
I236
aI202
aI100
aa(lp36
I233
aI189
aI70
aa(lp37
I224
aI183
aI80
aa(lp38
I239
aI194
aI80
aa(lp39
I236
aI196
aI129
aa(lp40
I192
aI162
aI67
aa(lp41
I234
aI195
aI73
aa(lp42
I226
aI183
aI67
aa(lp43
I231
aI189
aI70
aa(lp44
I240
aI196
aI71
aa(lp45
I242
aI198
aI73
aa(lp46
I237
aI194
aI71
aa(lp47
I145
aI78
aI163
aa(lp48
I149
aI87
aI164
aa(lp49
I243
aI200
aI73
aa(lp50
I233
aI196
aI98
aa(lp51
I243
aI200
aI74
aa(lp52
I246
aI204
aI74
aa(lp53
I241
aI199
aI72
aa(lp54
I249
aI206
aI74
aa(lp55
I219
aI195
aI87
aa(lp56
I240
aI198
aI72
aa(lp57
I245
aI203
aI75
aa(lp58
I151
aI128
aI91
aa(lp59
I181
aI147
aI130
aa(lp60
I123
aI129
aI129
aa(lp61
I190
aI181
aI73
aa(lp62
I82
aI72
aI62
aa(lp63
I211
aI172
aI143
aa(lp64
I148
aI112
aI91
aa(lp65
I135
aI100
aI80
aa(lp66
I141
aI120
aI101
aa(lp67
I160
aI105
aI81
aa(lp68
I204
aI169
aI141
aa(lp69
I179
aI157
aI141
aa(lp70
I195
aI164
aI116
aa(lp71
I182
aI176
aI155
aa(lp72
I187
aI154
aI95
aa(lp73
I194
aI162
aI66
aa(lp74
I191
aI159
aI65
aa(lp75
I201
aI149
aI54
aa(lp76
I215
aI169
aI59
aa(lp77
I211
aI173
aI61
aa(lp78
I202
aI170
aI79
aa(lp79
I199
aI173
aI78
aa(lp80
I177
aI163
aI94
aa(lp81
I217
aI178
aI64
aa(lp82
I183
aI81
aI64
aa(lp83
I172
aI75
aI60
aa(lp84
I161
aI134
aI92
aa(lp85
I160
aI133
aI89
aa(lp86
I164
aI137
aI94
aa(lp87
I151
aI151
aI151
aa(lp88
I128
aI142
aI142
aa(lp89
I143
aI109
aI77
aa(lp90
I248
aI211
aI72
aa(lp91
I253
aI232
aI43
aa(lp92
I249
aI231
aI153
aa(lp93
I251
aI240
aI166
aa(lp94
I251
aI170
aI96
aa(lp95
I217
aI43
aI26
aa(lp96
I138
aI213
aI251
aa(lp97
I138
aI213
aI252
aa(lp98
I0
aI58
aI157
aa(lp99
I199
aI216
aI241
aa(lp100
I220
aI179
aI145
aa(lp101
I174
aI172
aI167
aa(lp102
I230
aI193
aI158
aa(lp103
I203
aI132
aI149
aa(lp104
I170
aI72
aI92
aa(lp105
I220
aI182
aI148
aa(lp106
I224
aI188
aI155
aa(lp107
I220
aI186
aI153
aa(lp108
I221
aI185
aI150
aa(lp109
I222
aI182
aI146
aa(lp110
I221
aI182
aI146
aa(lp111
I235
aI207
aI174
aa(lp112
I233
aI205
aI172
aa(lp113
I235
aI207
aI175
aa(lp114
I223
aI196
aI164
aa(lp115
I223
aI195
aI164
aa(lp116
I222
aI194
aI162
aa(lp117
I222
aI194
aI163
aa(lp118
I230
aI201
aI167
aa(lp119
I148
aI149
aI167
aa(lp120
I222
aI181
aI145
aa(lp121
I228
aI196
aI163
aa(lp122
I227
aI190
aI153
aa(lp123
I95
aI95
aI114
aa(lp124
I100
aI85
aI106
aa(lp125
I173
aI33
aI23
aa(lp126
I131
aI90
aI98
aa(lp127
I140
aI102
aI100
aa(lp128
I128
aI109
aI100
aa(lp129
I174
aI102
aI105
aa(lp130
I175
aI114
aI115
aa(lp131
I180
aI114
aI136
aa(lp132
I154
aI128
aI91
aa(lp133
I197
aI127
aI140
aa(lp134
I179
aI112
aI120
aa(lp135
I169
aI107
aI103
aa(lp136
I181
aI119
aI119
aa(lp137
I178
aI122
aI111
aa(lp138
I164
aI102
aI94
aa(lp139
I219
aI164
aI162
aa(lp140
I163
aI133
aI120
aa(lp141
I171
aI110
aI105
aa(lp142
I181
aI118
aI117
aa(lp143
I95
aI106
aI114
aa(lp144
I90
aI85
aI66
aa(lp145
I217
aI172
aI76
aa(lp146
I147
aI153
aI86
aa(lp147
I191
aI191
aI190
aa(lp148
I94
aI63
aI54
aa(lp149
I202
aI182
aI143
aa(lp150
I195
aI62
aI49
aa(lp151
I169
aI138
aI80
aa(lp152
I112
aI138
aI172
aa(lp153
I127
aI154
aI176
aa(lp154
I172
aI110
aI148
aa(lp155
I18
aI161
aI149
aa(lp156
I90
aI189
aI236
aa(lp157
I66
aI79
aI143
aa(lp158
I200
aI132
aI42
aa(lp159
I229
aI78
aI153
aa(lp160
I110
aI92
aI89
aa(lp161
I145
aI105
aI69
aa(lp162
I223
aI179
aI116
aa(lp163
I223
aI125
aI166
aa(lp164
I140
aI153
aI164
aa(lp165
I217
aI90
aI160
aa(lp166
I235
aI81
aI118
aa(lp167
I220
aI142
aI116
aa(lp168
I251
aI221
aI108
aa(lp169
I73
aI152
aI244
aa(lp170
I198
aI120
aI244
aa(lp171
I118
aI216
aI97
aa(lp172
I215
aI84
aI69
aa(lp173
I247
aI108
aI189
aa(lp174
I246
aI108
aI188
aa(lp175
I249
aI109
aI190
aa(lp176
I245
aI113
aI159
aa(lp177
I240
aI105
aI182
aa(lp178
I196
aI117
aI200
aa(lp179
I227
aI181
aI172
aa(lp180
I214
aI15
aI61
aa(lp181
I129
aI164
aI169
aa(lp182
I158
aI215
aI246
aa(lp183
I88
aI111
aI137
aa(lp184
I79
aI100
aI126
aa(lp185
I221
aI221
aI221
aa(lp186
I178
aI27
aI30
aa(lp187
I245
aI245
aI245
aa(lp188
I241
aI177
aI53
aa(lp189
I205
aI141
aI35
aa(lp190
I183
aI184
aI193
aa(lp191
I85
aI199
aI47
aa(lp192
I184
aI169
aI152
aa(lp193
I147
aI126
aI67
aa(lp194
I217
aI181
aI75
aa(lp195
I189
aI176
aI179
aa(lp196
I212
aI165
aI145
aa(lp197
I163
aI152
aI154
aa(lp198
I24
aI133
aI62
aa(lp199
I193
aI159
aI60
aa(lp200
I148
aI134
aI131
aa(lp201
I168
aI130
aI61
aa(lp202
I217
aI163
aI173
aa(lp203
I196
aI124
aI142
aa(lp204
I180
aI159
aI145
aa(lp205
I99
aI83
aI69
aa(lp206
I162
aI137
aI98
aa(lp207
I141
aI116
aI76
aa(lp208
I126
aI109
aI67
aa(lp209
I208
aI193
aI164
aa(lp210
I175
aI162
aI166
aa(lp211
I158
aI157
aI157
aa(lp212
I126
aI127
aI115
aa(lp213
I140
aI153
aI149
aa(lp214
I231
aI194
aI70
aa(lp215
I201
aI165
aI51
aa(lp216
I197
aI180
aI122
aa(lp217
I217
aI189
aI172
aa(lp218
I0
aI139
aI61
aa(lp219
I89
aI145
aI71
aa(lp220
I142
aI147
aI43
aa(lp221
I134
aI117
aI42
aa(lp222
I61
aI61
aI61
aa(lp223
I138
aI70
aI35
aa(lp224
I167
aI125
aI76
aa(lp225
I165
aI84
aI89
aa(lp226
I201
aI187
aI185
aa(lp227
I159
aI192
aI119
aa(lp228
I132
aI168
aI199
aa(lp229
I19
aI158
aI168
aa(lp230
I70
aI149
aI184
aa(lp231
I146
aI164
aI187
aa(lp232
I136
aI129
aI127
aa(lp233
I223
aI217
aI189
aa(lp234
I154
aI145
aI143
aa(lp235
I92
aI82
aI83
aa(lp236
I182
aI126
aI56
aa(lp237
I233
aI229
aI228
aa(lp238
I77
aI139
aI90
aa(lp239
I102
aI103
aI33
aa(lp240
I234
aI233
aI218
aa(lp241
I228
aI214
aI212
aa(lp242
I222
aI186
aI128
aa(lp243
I231
aI194
aI164
aa(lp244
I238
aI234
aI234
aa(lp245
I192
aI134
aI75
aa(lp246
I81
aI142
aI88
aa(lp247
I164
aI141
aI112
aa(lp248
I106
aI144
aI100
aa(lp249
I214
aI175
aI116
aa(lp250
I215
aI174
aI113
aa(lp251
I186
aI150
aI95
aa(lp252
I227
aI196
aI166
aa(lp253
I190
aI182
aI176
aa(lp254
I198
aI35
aI39
aa(lp255
I205
aI146
aI118
aa(lp256
I219
aI162
aI176
aa(lp257
I159
aI103
aI126
aa(lp258
I85
aI195
aI55
aa(lp259
I176
aI61
aI30
aa(lp260
I176
aI144
aI30
aa(lp261
I220
aI104
aI117
aa(lp262
I229
aI108
aI77
aa(lp263
I128
aI183
aI55
aa(lp264
I205
aI141
aI35
aa(lp265
I134
aI170
aI95
aa(lp266
I209
aI196
aI55
aa(lp267
I207
aI122
aI95
aa(lp268
I83
aI151
aI56
aa(lp269
I76
aI148
aI51
aa(lp270
I107
aI125
aI17
aa(lp271
I124
aI145
aI25
aa(lp272
I147
aI80
aI47
aa(lp273
I85
aI199
aI47
aa(lp274
I213
aI170
aI42
aa(lp275
I103
aI139
aI170
aa(lp276
I239
aI218
aI102
aa(lp277
I105
aI108
aI124
aa(lp278
I79
aI81
aI96
aa(lp279
I115
aI113
aI103
aa(lp280
I162
aI154
aI111
aa(lp281
I213
aI201
aI129
aa(lp282
I245
aI230
aI139
aa(lp283
I214
aI204
aI135
aa(lp284
I163
aI159
aI126
aa(lp285
I109
aI109
aI105
aa(lp286
I237
aI215
aI106
aa(lp287
I238
aI216
aI108
aa(lp288
I249
aI228
aI107
aa(lp289
I100
aI168
aI126
aa(lp290
I68
aI156
aI155
aa(lp291
I77
aI161
aI151
aa(lp292
I179
aI100
aI64
aa(lp293
I75
aI87
aI127
aa(lp294
I73
aI113
aI130
aa(lp295
I247
aI232
aI164
aa(lp296
I223
aI218
aI210
aa(lp297
I183
aI184
aI193
aa(lp298
I42
aI121
aI235
aa(lp299
I192
aI212
aI218
aa(lp300
I123
aI174
aI178
aa(lp301
I85
aI103
aI130
aa(lp302
I132
aI150
aI111
aa(lp303
I225
aI138
aI133
aa(lp304
I128
aI83
aI83
aa(lp305
I158
aI38
aI54
aa(lp306
I66
aI62
aI60
aa(lp307
I157
aI151
aI174
aa(lp308
I87
aI123
aI127
aa(lp309
I78
aI110
aI128
aa(lp310
I208
aI200
aI205
aa(lp311
I117
aI140
aI147
aa(lp312
I212
aI135
aI28
aa(lp313
I185
aI177
aI180
aa(lp314
I192
aI136
aI121
aa(lp315
I122
aI149
aI40
aa(lp316
I198
aI117
aI63
aa(lp317
I154
aI95
aI51
aa(lp318
I196
aI137
aI72
aa(lp319
I193
aI161
aI79
aa(lp320
I238
aI76
aI95
aa(lp321
I231
aI203
aI200
aa(lp322
I145
aI109
aI143
aa(lp323
I43
aI43
aI43
aa(lp324
I153
aI159
aI167
aa(lp325
I154
aI159
aI170
aa(lp326
I92
aI94
aI99
aa(lp327
I224
aI225
aI220
aa(lp328
I235
aI222
aI179
aa(lp329
I161
aI156
aI137
aa(lp330
I153
aI156
aI161
aa(lp331
I111
aI160
aI206
aa(lp332
I62
aI66
aI65
aa(lp333
I74
aI74
aI74
aa(lp334
I112
aI116
aI109
aa(lp335
I207
aI202
aI181
aa(lp336
I146
aI146
aI146
aa(lp337
I106
aI92
aI71
aa(lp338
I159
aI136
aI91
aa(lp339
I129
aI129
aI130
aa(lp340
I129
aI129
aI130
aa(lp341
I130
aI130
aI130
aa(lp342
I152
aI106
aI100
aa(lp343
I200
aI167
aI119
aa(lp344
I200
aI133
aI90
aa(lp345
I186
aI152
aI75
aa(lp346
I189
aI152
aI69
aa(lp347
I176
aI143
aI126
aa(lp348
I172
aI137
aI119
aa(lp349
I151
aI69
aI60
aa(lp350
I172
aI172
aI172
aa(lp351
I235
aI208
aI155
aa(lp352
I231
aI204
aI150
aa(lp353
I185
aI172
aI149
aa(lp354
I211
aI173
aI114
aa(lp355
I225
aI165
aI69
aa(lp356
I78
aI78
aI78
aa(lp357
I242
aI237
aI216
aa(lp358
I148
aI151
aI154
aa(lp359
I247
aI216
aI104
aa(lp360
I247
aI212
aI98
aa(lp361
I41
aI41
aI41
aa(lp362
I127
aI189
aI134
aa(lp363
I78
aI78
aI78
aa(lp364
I171
aI171
aI171
aa(lp365
I177
aI174
aI172
aa(lp366
I165
aI166
aI166
aa(lp367
I196
aI196
aI196
aa(lp368
I178
aI180
aI183
aa(lp369
I139
aI139
aI139
aa(lp370
I146
aI118
aI101
aa(lp371
I186
aI134
aI72
aa(lp372
I182
aI169
aI150
aa(lp373
I97
aI100
aI110
aa(lp374
I81
aI84
aI91
aa(lp375
I185
aI185
aI185
aa(lp376
I214
aI144
aI57
aa(lp377
I186
aI125
aI123
aa(lp378
I186
aI161
aI89
aa(lp379
I176
aI163
aI139
aa(lp380
I184
aI177
aI150
aa(lp381
I192
aI182
aI178
aa(lp382
I191
aI199
aI174
aa(lp383
I190
aI183
aI155
aa(lp384
I200
aI195
aI165
aa(lp385
I63
aI76
aI82
aa(lp386
I188
aI196
aI223
aa(lp387
I187
aI194
aI213
aa(lp388
I187
aI192
aI211
aa(lp389
I222
aI212
aI209
aa(lp390
I222
aI222
aI222
aa(lp391
I189
aI146
aI84
aa(lp392
I93
aI136
aI178
aa(lp393
I100
aI146
aI187
aa(lp394
I123
aI133
aI151
aa(lp395
I124
aI129
aI142
aa(lp396
I189
aI82
aI64
aa(lp397
I169
aI132
aI91
aa(lp398
I218
aI210
aI191
aa(lp399
I226
aI226
aI226
aa(lp400
I222
aI222
aI222
aa(lp401
I219
aI222
aI224
aa(lp402
I193
aI200
aI205
aa(lp403
I223
aI215
aI216
aa(lp404
I212
aI218
aI231
aa(lp405
I216
aI191
aI161
aa(lp406
I215
aI205
aI193
aa(lp407
I198
aI162
aI162
aa(lp408
I176
aI143
aI142
aa(lp409
I187
aI186
aI186
aa(lp410
I178
aI186
aI194
aa(lp411
I164
aI173
aI181
aa(lp412
I185
aI42
aI27
aa(lp413
I135
aI135
aI135
aa(lp414
I141
aI153
aI175
aa(lp415
I148
aI159
aI182
aa(lp416
I177
aI63
aI61
aa(lp417
I128
aI164
aI73
aa(lp418
I67
aI127
aI171
aa(lp419
I216
aI136
aI50
aa(lp420
I134
aI134
aI134
aa(lp421
I218
aI188
aI125
aa(lp422
I223
aI198
aI53
aa(lp423
I132
aI137
aI100
aa(lp424
I173
aI178
aI188
aa(lp425
I216
aI206
aI200
aa(lp426
I204
aI112
aI101
aa(lp427
I180
aI181
aI181
aa(lp428
I170
aI171
aI173
aa(lp429
I186
aI186
aI186
aa(lp430
I194
aI156
aI99
aa(lp431
I130
aI133
aI132
aa(lp432
I91
aI92
aI93
aa(lp433
I187
aI187
aI187
aa(lp434
I25
aI25
aI25
aa(lp435
I134
aI132
aI208
aa(lp436
I61
aI61
aI61
aa(lp437
I159
aI159
aI161
aa(lp438
I179
aI105
aI60
aa(lp439
I183
aI155
aI56
aa(lp440
I197
aI167
aI75
aa(lp441
I182
aI110
aI47
aa(lp442
I126
aI100
aI157
aa(lp443
I69
aI68
aI68
aa(lp444
I154
aI143
aI134
aa(lp445
I140
aI81
aI81
aa(lp446
I210
aI176
aI155
aa(lp447
I197
aI195
aI195
aa(lp448
I199
aI124
aI132
aa(lp449
I143
aI99
aI95
aa(lp450
I171
aI87
aI33
aa(lp451
I142
aI142
aI142
aa(lp452
I192
aI182
aI181
aa(lp453
I175
aI213
aI74
aa(lp454
I79
aI79
aI79
aa(lp455
I200
aI138
aI56
aa(lp456
I107
aI106
aI106
aa(lp457
I115
aI126
aI22
aa(lp458
I161
aI132
aI97
aa(lp459
I126
aI156
aI91
aa(lp460
I126
aI126
aI126
aa(lp461
I101
aI96
aI66
aa(lp462
I171
aI136
aI74
aa(lp463
I11
aI222
aI176
aa(lp464
I205
aI202
aI190
aa(lp465
I62
aI188
aI193
aa(lp466
I73
aI158
aI138
aa(lp467
I144
aI171
aI196
aa(lp468
I166
aI159
aI148
aa(lp469
I178
aI177
aI150
aa(lp470
I211
aI191
aI134
aa(lp471
I217
aI226
aI210
aa(lp472
I220
aI181
aI122
aa(lp473
I220
aI178
aI113
aa(lp474
I219
aI220
aI193
aa(lp475
I197
aI153
aI83
aa(lp476
I155
aI83
aI92
aa(lp477
I200
aI204
aI210
aa(lp478
I205
aI130
aI71
aa(lp479
I188
aI125
aI60
aa(lp480
I217
aI140
aI58
aa(lp481
I184
aI128
aI90
aa(lp482
I205
aI135
aI78
aa(lp483
I200
aI155
aI110
aa(lp484
I172
aI148
aI129
aa(lp485
I214
aI138
aI82
aa(lp486
I157
aI120
aI105
aa(lp487
I196
aI81
aI65
aa(lp488
I241
aI218
aI230
aa(lp489
I154
aI155
aI143
aa(lp490
I149
aI94
aI37
aa(lp491
I198
aI198
aI198
aa(lp492
I190
aI171
aI136
aa(lp493
I189
aI188
aI176
aa(lp494
I162
aI137
aI112
aa(lp495
I199
aI179
aI166
aa(lp496
I106
aI101
aI81
aa(lp497
I213
aI178
aI119
aa(lp498
I102
aI59
aI24
aa(lp499
I188
aI156
aI106
aa(lp500
I228
aI202
aI134
aa(lp501
I209
aI200
aI187
aa(lp502
I210
aI161
aI170
aa(lp503
I211
aI200
aI198
aa(lp504
I214
aI181
aI162
aa(lp505
I183
aI144
aI95
aa(lp506
I169
aI98
aI82
aa(lp507
I137
aI170
aI170
aa(lp508
I173
aI145
aI109
aa(lp509
I223
aI163
aI52
aa(lp510
I207
aI79
aI67
aa(lp511
I136
aI169
aI73
aa(lp512
I229
aI146
aI59
aa(lp513
I232
aI214
aI72
aa(lp514
I165
aI62
aI61
aa(lp515
I201
aI79
aI190
aa(lp516
I228
aI127
aI127
aa(lp517
I189
aI85
aI60
aa(lp518
I218
aI127
aI102
aa(lp519
I198
aI193
aI131
aa(lp520
I204
aI181
aI97
aa(lp521
I200
aI210
aI85
aa(lp522
I151
aI139
aI25
aa(lp523
I205
aI167
aI85
aa(lp524
I141
aI100
aI139
aa(lp525
I220
aI108
aI63
aa(lp526
I186
aI183
aI103
aa(lp527
I174
aI178
aI159
aa(lp528
I132
aI143
aI98
aa(lp529
I181
aI180
aI115
aa(lp530
I162
aI173
aI184
aa(lp531
I176
aI166
aI151
aa(lp532
I173
aI160
aI162
aa(lp533
I125
aI152
aI157
aa(lp534
I108
aI132
aI145
aa(lp535
I169
aI127
aI154
aa(lp536
I157
aI135
aI133
aa(lp537
I170
aI134
aI142
aa(lp538
I160
aI152
aI144
aa(lp539
I150
aI157
aI167
aa(lp540
I162
aI151
aI140
aa(lp541
I203
aI128
aI48
aa(lp542
I142
aI82
aI39
aa(lp543
I153
aI183
aI177
aa(lp544
I169
aI142
aI140
aa(lp545
I95
aI114
aI78
aa(lp546
I172
aI160
aI159
aa(lp547
I189
aI189
aI198
aa(lp548
I95
aI147
aI203
aa(lp549
I140
aI161
aI177
aa(lp550
I157
aI125
aI118
aa(lp551
I224
aI142
aI71
aa(lp552
I42
aI81
aI109
aa(lp553
I116
aI168
aI183
aa(lp554
I91
aI56
aI116
aa(lp555
I139
aI176
aI197
aa(lp556
I146
aI161
aI197
aa(lp557
I102
aI149
aI147
aa(lp558
I174
aI167
aI174
aa(lp559
I132
aI141
aI153
aa(lp560
I207
aI114
aI53
aa(lp561
I201
aI157
aI47
aa(lp562
I90
aI141
aI161
aa(lp563
I81
aI111
aI143
aa(lp564
I165
aI123
aI114
aa(lp565
I170
aI185
aI194
aa(lp566
I114
aI124
aI155
aa(lp567
I142
aI122
aI132
aa(lp568
I123
aI87
aI70
aa(lp569
I87
aI97
aI95
aa(lp570
I97
aI109
aI108
aa(lp571
I131
aI144
aI135
aa(lp572
I167
aI173
aI175
aa(lp573
I149
aI159
aI176
aa(lp574
I154
aI162
aI200
aa(lp575
I107
aI125
aI155
aa(lp576
I92
aI104
aI105
aa(lp577
I139
aI151
aI186
aa(lp578
I158
aI162
aI144
aa(lp579
I163
aI171
aI153
aa(lp580
I130
aI156
aI190
aa(lp581
I186
aI160
aI115
aa(lp582
I160
aI177
aI161
aa(lp583
I62
aI119
aI163
aa(lp584
I80
aI144
aI194
aa(lp585
I173
aI77
aI71
aa(lp586
I204
aI170
aI75
aa(lp587
I171
aI173
aI114
aa(lp588
I49
aI110
aI88
aa(lp589
I190
aI152
aI68
aa(lp590
I224
aI99
aI99
aa(lp591
I142
aI141
aI142
aa(lp592
I161
aI170
aI174
aa(lp593
I185
aI106
aI96
aa(lp594
I179
aI150
aI149
aa(lp595
I148
aI152
aI158
aa(lp596
I89
aI104
aI123
aa(lp597
I126
aI123
aI84
aa(lp598
I155
aI154
aI123
aa(lp599
I135
aI113
aI121
aa(lp600
I165
aI150
aI95
aa(lp601
I173
aI149
aI179
aa(lp602
I169
aI165
aI181
aa(lp603
I188
aI185
aI114
aa(lp604
I84
aI78
aI65
aa(lp605
I97
aI91
aI78
aa(lp606
I224
aI193
aI57
aa(lp607
I146
aI135
aI61
aa(lp608
I108
aI169
aI99
aa(lp609
I161
aI69
aI46
aa(lp610
I184
aI82
aI48
aa(lp611
I106
aI87
aI89
aa(lp612
I207
aI40
aI23
aa(lp613
I149
aI149
aI149
aa(lp614
I206
aI135
aI127
aa(lp615
I164
aI152
aI128
aa(lp616
I207
aI57
aI49
aa(lp617
I237
aI82
aI68
aa(lp618
I155
aI178
aI199
aa(lp619
I144
aI169
aI193
aa(lp620
I151
aI175
aI197
aa(lp621
I150
aI176
aI199
aa(lp622
I150
aI175
aI199
aa(lp623
I150
aI176
aI199
aa(lp624
I150
aI176
aI199
aa(lp625
I151
aI175
aI197
aa(lp626
I145
aI170
aI193
aa(lp627
I142
aI168
aI192
aa(lp628
I152
aI177
aI200
aa(lp629
I152
aI177
aI200
aa(lp630
I154
aI178
aI201
aa(lp631
I154
aI178
aI201
aa(lp632
I152
aI176
aI197
aa(lp633
I152
aI176
aI197
aa(lp634
I153
aI177
aI201
aa(lp635
I146
aI173
aI197
aa(lp636
I146
aI173
aI197
aa(lp637
I151
aI175
aI197
aa(lp638
I149
aI173
aI195
aa(lp639
I149
aI173
aI195
aa(lp640
I148
aI173
aI195
aa(lp641
I143
aI169
aI192
aa(lp642
I153
aI178
aI201
aa(lp643
I153
aI178
aI201
aa(lp644
I156
aI179
aI199
aa(lp645
I155
aI178
aI198
aa(lp646
I142
aI168
aI191
aa(lp647
I142
aI168
aI192
aa(lp648
I146
aI173
aI198
aa(lp649
I149
aI174
aI199
aa(lp650
I152
aI177
aI201
aa(lp651
I153
aI178
aI201
aa(lp652
I151
aI176
aI200
aa(lp653
I148
aI172
aI195
aa(lp654
I144
aI170
aI196
aa(lp655
I147
aI172
aI194
aa(lp656
I148
aI174
aI199
aa(lp657
I154
aI178
aI202
aa(lp658
I161
aI183
aI204
aa(lp659
I155
aI180
aI203
aa(lp660
I60
aI138
aI234
aa(lp661
I230
aI117
aI210
aa(lp662
I254
aI176
aI97
aa(lp663
I81
aI150
aI236
aa(lp664
I66
aI138
aI233
aa(lp665
I142
aI170
aI196
aa(lp666
I67
aI142
aI235
aa(lp667
I73
aI144
aI234
aa(lp668
I84
aI151
aI236
aa(lp669
I88
aI198
aI231
aa(lp670
I71
aI142
aI234
aa(lp671
I96
aI157
aI236
aa(lp672
I80
aI145
aI234
aa(lp673
I76
aI145
aI234
aa(lp674
I219
aI93
aI84
aa(lp675
I218
aI91
aI82
aa(lp676
I186
aI140
aI211
aa(lp677
I220
aI44
aI27
aa(lp678
I172
aI108
aI93
aa(lp679
I129
aI67
aI50
aa(lp680
I131
aI71
aI54
aa(lp681
I128
aI68
aI51
aa(lp682
I121
aI62
aI45
aa(lp683
I129
aI69
aI52
aa(lp684
I170
aI153
aI15
aa(lp685
I218
aI103
aI78
aa(lp686
I77
aI198
aI100
aa(lp687
I75
aI196
aI98
aa(lp688
I88
aI205
aI92
aa(lp689
I61
aI198
aI66
aa(lp690
I254
aI173
aI92
aa(lp691
I234
aI141
aI218
aa(lp692
I254
aI170
aI84
aa(lp693
I254
aI173
aI95
aa(lp694
I254
aI179
aI102
aa(lp695
I222
aI90
aI76
aa(lp696
I223
aI98
aI84
aa(lp697
I226
aI118
aI106
aa(lp698
I222
aI94
aI81
aa(lp699
I125
aI205
aI231
aa(lp700
I60
aI153
aI226
aa(lp701
I51
aI159
aI65
aa(lp702
I183
aI112
aI204
aa(lp703
I182
aI114
aI203
aa(lp704
I184
aI117
aI205
aa(lp705
I181
aI112
aI202
aa(lp706
I184
aI117
aI204
aa(lp707
I184
aI116
aI205
aa(lp708
I186
aI124
aI205
aa(lp709
I182
aI112
aI204
aa(lp710
I181
aI111
aI203
aa(lp711
I185
aI118
aI205
aa(lp712
I182
aI116
aI203
aa(lp713
I183
aI113
aI204
aa(lp714
I186
aI120
aI206
aa(lp715
I183
aI120
aI203
aa(lp716
I89
aI146
aI189
aa(lp717
I65
aI195
aI91
aa(lp718
I26
aI26
aI26
aa(lp719
I47
aI47
aI47
aa(lp720
I220
aI43
aI25
aa(lp721
I222
aI46
aI28
aa(lp722
I222
aI44
aI27
aa(lp723
I224
aI44
aI25
aa(lp724
I224
aI45
aI26
aa(lp725
I208
aI208
aI208
aa(lp726
I208
aI208
aI208
aa(lp727
I220
aI43
aI25
aa(lp728
I46
aI46
aI46
aa(lp729
I45
aI45
aI45
aa(lp730
I47
aI47
aI47
aa(lp731
I47
aI47
aI47
aa(lp732
I46
aI46
aI46
aa(lp733
I38
aI38
aI38
aa(lp734
I224
aI224
aI224
aa(lp735
I222
aI222
aI222
aa(lp736
I222
aI222
aI222
aa(lp737
I222
aI222
aI222
aa(lp738
I222
aI222
aI222
aa(lp739
I222
aI222
aI222
aa(lp740
I222
aI222
aI222
aa(lp741
I223
aI223
aI223
aa(lp742
I222
aI222
aI222
aa(lp743
I223
aI223
aI223
aa(lp744
I222
aI222
aI222
aa(lp745
I223
aI223
aI223
aa(lp746
I222
aI222
aI222
aa(lp747
I222
aI222
aI222
aa(lp748
I222
aI222
aI222
aa(lp749
I222
aI222
aI222
aa(lp750
I222
aI222
aI222
aa(lp751
I222
aI222
aI222
aa(lp752
I225
aI225
aI225
aa(lp753
I223
aI223
aI223
aa(lp754
I223
aI223
aI223
aa(lp755
I223
aI223
aI223
aa(lp756
I222
aI222
aI222
aa(lp757
I222
aI222
aI222
aa(lp758
I38
aI38
aI38
aa(lp759
I41
aI41
aI41
aa(lp760
I39
aI39
aI39
aa(lp761
I768
aI768
aI768
aa(lp762
I202
aI0
aI0
aa(lp763
I150
aI150
aI150
aa(lp764
I137
aI137
aI137
aa(lp765
I42
aI42
aI42
aa(lp766
I226
aI210
aI85
aa(lp767
I62
aI62
aI62
aa(lp768
I222
aI222
aI222
aa(lp769
I65
aI65
aI65
aa(lp770
I217
aI217
aI217
aa(lp771
I68
aI68
aI68
aa(lp772
I226
aI226
aI226
aa(lp773
I224
aI72
aI69
aa(lp774
I114
aI114
aI114
aa(lp775
I156
aI156
aI156
aa(lp776
I75
aI75
aI75
aa(lp777
I225
aI225
aI225
aa(lp778
I248
aI82
aI68
aa(lp779
I69
aI143
aI241
aa(lp780
I212
aI62
aI62
aa(lp781
I230
aI230
aI230
aa(lp782
I62
aI62
aI62
aa(lp783
I249
aI177
aI89
aa(lp784
I89
aI146
aI247
aa(lp785
I249
aI176
aI88
aa(lp786
I89
aI146
aI248
aa(lp787
I768
aI768
aI768
aa(lp788
I768
aI768
aI768
aa(lp789
I768
aI768
aI768
aa(lp790
I768
aI768
aI768
aa(lp791
I768
aI768
aI768
aa(lp792
I768
aI768
aI768
aa(lp793
I768
aI768
aI768
aa(lp794
I768
aI768
aI768
aa(lp795
I768
aI768
aI768
aa(lp796
I768
aI768
aI768
aa(lp797
I768
aI768
aI768
aa(lp798
I768
aI768
aI768
aa(lp799
I768
aI768
aI768
aa(lp800
I768
aI768
aI768
aa(lp801
I768
aI768
aI768
aa(lp802
I768
aI768
aI768
aa(lp803
I768
aI768
aI768
aa(lp804
I768
aI768
aI768
aa(lp805
I768
aI768
aI768
aa(lp806
I768
aI768
aI768
aa(lp807
I768
aI768
aI768
aa(lp808
I768
aI768
aI768
aa(lp809
I768
aI768
aI768
aa(lp810
I768
aI768
aI768
aa(lp811
I768
aI768
aI768
aa(lp812
I768
aI768
aI768
aa(lp813
I768
aI768
aI768
aa(lp814
I768
aI768
aI768
aa(lp815
I768
aI768
aI768
aa(lp816
I768
aI768
aI768
aa(lp817
I768
aI768
aI768
aa(lp818
I768
aI768
aI768
aa(lp819
I768
aI768
aI768
aa(lp820
I768
aI768
aI768
aa(lp821
I768
aI768
aI768
aa(lp822
I768
aI768
aI768
aa(lp823
I768
aI768
aI768
aa(lp824
I768
aI768
aI768
aa(lp825
I768
aI768
aI768
aa(lp826
I768
aI768
aI768
aa(lp827
I768
aI768
aI768
aa(lp828
I768
aI768
aI768
aa(lp829
I768
aI768
aI768
aa(lp830
I768
aI768
aI768
aa(lp831
I768
aI768
aI768
aa(lp832
I768
aI768
aI768
aa(lp833
I768
aI768
aI768
aa(lp834
I768
aI768
aI768
aa(lp835
I768
aI768
aI768
aa(lp836
I768
aI768
aI768
aa(lp837
I768
aI768
aI768
aa(lp838
I768
aI768
aI768
aa(lp839
I768
aI768
aI768
aa(lp840
I768
aI768
aI768
aa(lp841
I768
aI768
aI768
aa(lp842
I768
aI768
aI768
aa(lp843
I768
aI768
aI768
aa(lp844
I768
aI768
aI768
aa(lp845
I768
aI768
aI768
aa(lp846
I768
aI768
aI768
aa(lp847
I768
aI768
aI768
aa(lp848
I768
aI768
aI768
aa(lp849
I768
aI768
aI768
aa(lp850
I768
aI768
aI768
aa(lp851
I768
aI768
aI768
aa(lp852
(lp853
I207
aI157
aI61
aI212
aa(lp854
I205
aI155
aI59
aI212
aa(lp855
I221
aI169
aI66
aI222
aa(lp856
I217
aI162
aI54
aI212
aa(lp857
I216
aI166
aI56
aI212
aa(lp858
I212
aI148
aI49
aI212
aa(lp859
I211
aI155
aI52
aI212
aa(lp860
I216
aI161
aI53
aI212
aa(lp861
I233
aI180
aI60
aI222
aa(lp862
I232
aI179
aI59
aI222
aa(lp863
I211
aI157
aI76
aI214
aa(lp864
I214
aI156
aI65
aI214
aa(lp865
I229
aI168
aI70
aI222
aa(lp866
I207
aI158
aI76
aI212
aa(lp867
I207
aI161
aI73
aI212
aa(lp868
I216
aI166
aI56
aI212
aa(lp869
I215
aI166
aI55
aI212
aa(lp870
I216
aI166
aI56
aI212
aa(lp871
I219
aI169
aI57
aI212
aa(lp872
I214
aI165
aI55
aI212
aa(lp873
I206
aI164
aI67
aI213
aa(lp874
I187
aI156
aI86
aI214
aa(lp875
I192
aI156
aI79
aI213
aa(lp876
I203
aI160
aI67
aI212
aa(lp877
I207
aI166
aI68
aI213
aa(lp878
I160
aI151
aI123
aI213
aa(lp879
I191
aI153
aI71
aI211
aa(lp880
I197
aI165
aI74
aI211
aa(lp881
I204
aI154
aI54
aI212
aa(lp882
I203
aI152
aI53
aI212
aa(lp883
I169
aI150
aI110
aI212
aa(lp884
I166
aI147
aI109
aI215
aa(lp885
I217
aI166
aI56
aI212
aa(lp886
I192
aI90
aI31
aI212
aa(lp887
I211
aI173
aI86
aI214
aa(lp888
I210
aI160
aI54
aI212
aa(lp889
I203
aI155
aI60
aI212
aa(lp890
I214
aI163
aI62
aI213
aa(lp891
I211
aI161
aI98
aI212
aa(lp892
I181
aI140
aI51
aI212
aa(lp893
I210
aI167
aI66
aI218
aa(lp894
I205
aI155
aI52
aI212
aa(lp895
I209
aI160
aI54
aI212
aa(lp896
I228
aI176
aI58
aI222
aa(lp897
I230
aI177
aI60
aI222
aa(lp898
I227
aI174
aI58
aI222
aa(lp899
I112
aI57
aI127
aI208
aa(lp900
I116
aI63
aI129
aI208
aa(lp901
I231
aI178
aI60
aI222
aa(lp902
I224
aI175
aI78
aI222
aa(lp903
I217
aI167
aI56
aI212
aa(lp904
I233
aI181
aI60
aI222
aa(lp905
I230
aI178
aI59
aI222
aa(lp906
I221
aI171
aI57
aI212
aa(lp907
I179
aI153
aI77
aI207
aa(lp908
I215
aI166
aI55
aI212
aa(lp909
I232
aI181
aI61
aI222
aa(lp910
I137
aI108
aI75
aI223
aa(lp911
I153
aI123
aI109
aI225
aa(lp912
I107
aI114
aI118
aI225
aa(lp913
I164
aI153
aI61
aI222
aa(lp914
I68
aI59
aI49
aI224
aa(lp915
I181
aI145
aI117
aI220
aa(lp916
I127
aI95
aI75
aI224
aa(lp917
I108
aI79
aI62
aI216
aa(lp918
I118
aI98
aI80
aI223
aa(lp919
I136
aI85
aI64
aI225
aa(lp920
I179
aI148
aI122
aI224
aa(lp921
I155
aI136
aI122
aI225
aa(lp922
I176
aI143
aI95
aI223
aa(lp923
I146
aI143
aI135
aI206
aa(lp924
I168
aI134
aI76
aI226
aa(lp925
I187
aI152
aI53
aI212
aa(lp926
I185
aI150
aI53
aI212
aa(lp927
I191
aI143
aI46
aI212
aa(lp928
I208
aI147
aI46
aI201
aa(lp929
I199
aI160
aI50
aI212
aa(lp930
I189
aI157
aI62
aI212
aa(lp931
I188
aI158
aI62
aI210
aa(lp932
I164
aI147
aI78
aI209
aa(lp933
I208
aI168
aI55
aI215
aa(lp934
I120
aI53
aI35
aI198
aa(lp935
I177
aI70
aI55
aI216
aa(lp936
I147
aI120
aI79
aI219
aa(lp937
I151
aI124
aI83
aI222
aa(lp938
I149
aI122
aI81
aI222
aa(lp939
I123
aI123
aI123
aI220
aa(lp940
I105
aI119
aI120
aI210
aa(lp941
I119
aI85
aI56
aI200
aa(lp942
I230
aI142
aI43
aI188
aa(lp943
I228
aI146
aI17
aI105
aa(lp944
I240
aI198
aI88
aI177
aa(lp945
I202
aI179
aI104
aI99
aa(lp946
I243
aI107
aI64
aI166
aa(lp947
I172
aI38
aI26
aI151
aa(lp948
I62
aI131
aI184
aI166
aa(lp949
I84
aI159
aI201
aI195
aa(lp950
I0
aI41
aI122
aI143
aa(lp951
I142
aI159
aI190
aI179
aa(lp952
I185
aI152
aI121
aI203
aa(lp953
I142
aI141
aI137
aI198
aa(lp954
I187
aI146
aI113
aI169
aa(lp955
I173
aI117
aI131
aI191
aa(lp956
I139
aI52
aI69
aI195
aa(lp957
I176
aI141
aI112
aI198
aa(lp958
I178
aI144
aI116
aI198
aa(lp959
I159
aI127
aI100
aI177
aa(lp960
I180
aI146
aI116
aI206
aa(lp961
I186
aI147
aI115
aI207
aa(lp962
I169
aI133
aI103
aI185
aa(lp963
I164
aI135
aI108
aI177
aa(lp964
I178
aI147
aI119
aI185
aa(lp965
I164
aI136
aI110
aI169
aa(lp966
I165
aI137
aI111
aI183
aa(lp967
I163
aI136
aI110
aI182
aa(lp968
I159
aI132
aI108
aI183
aa(lp969
I158
aI132
aI108
aI183
aa(lp970
I142
aI134
aI115
aI162
aa(lp971
I164
aI152
aI108
aI165
aa(lp972
I178
aI138
aI106
aI188
aa(lp973
I175
aI137
aI102
aI180
aa(lp974
I170
aI135
aI105
aI184
aa(lp975
I68
aI62
aI79
aI175
aa(lp976
I78
aI67
aI79
aI174
aa(lp977
I145
aI40
aI27
aI179
aa(lp978
I118
aI79
aI74
aI178
aa(lp979
I126
aI88
aI90
aI221
aa(lp980
I101
aI81
aI72
aI176
aa(lp981
I150
aI92
aI89
aI177
aa(lp982
I152
aI95
aI97
aI226
aa(lp983
I164
aI100
aI121
aI222
aa(lp984
I128
aI102
aI68
aI186
aa(lp985
I189
aI116
aI134
aI224
aa(lp986
I158
aI95
aI101
aI217
aa(lp987
I153
aI92
aI91
aI226
aa(lp988
I174
aI112
aI114
aI224
aa(lp989
I159
aI103
aI97
aI224
aa(lp990
I138
aI87
aI81
aI214
aa(lp991
I201
aI134
aI142
aI208
aa(lp992
I156
aI131
aI123
aI230
aa(lp993
I156
aI94
aI90
aI225
aa(lp994
I166
aI101
aI100
aI225
aa(lp995
I57
aI86
aI99
aI186
aa(lp996
I69
aI65
aI50
aI217
aa(lp997
I177
aI140
aI60
aI201
aa(lp998
I126
aI130
aI71
aI220
aa(lp999
I151
aI150
aI149
aI195
aa(lp1000
I68
aI46
aI38
aI193
aa(lp1001
I173
aI150
aI109
aI195
aa(lp1002
I134
aI45
aI36
aI192
aa(lp1003
I114
aI89
aI46
aI174
aa(lp1004
I94
aI115
aI148
aI213
aa(lp1005
I112
aI139
aI166
aI220
aa(lp1006
I156
aI97
aI133
aI213
aa(lp1007
I12
aI141
aI128
aI202
aa(lp1008
I80
aI175
aI223
aI216
aa(lp1009
I55
aI67
aI122
aI189
aa(lp1010
I185
aI120
aI40
aI214
aa(lp1011
I199
aI64
aI127
aI153
aa(lp1012
I88
aI73
aI70
aI201
aa(lp1013
I125
aI92
aI62
aI201
aa(lp1014
I206
aI165
aI109
aI221
aa(lp1015
I183
aI107
aI139
aI206
aa(lp1016
I88
aI92
aI95
aI144
aa(lp1017
I193
aI71
aI135
aI199
aa(lp1018
I141
aI41
aI60
aI140
aa(lp1019
I197
aI120
aI96
aI218
aa(lp1020
I238
aI195
aI82
aI215
aa(lp1021
I52
aI132
aI230
aI215
aa(lp1022
I180
aI101
aI229
aI215
aa(lp1023
I89
aI192
aI75
aI216
aa(lp1024
I194
aI57
aI40
aI197
aa(lp1025
I214
aI79
aI155
aI177
aa(lp1026
I206
aI66
aI119
aI159
aa(lp1027
I221
aI80
aI160
aI193
aa(lp1028
I224
aI91
aI137
aI210
aa(lp1029
I224
aI98
aI165
aI188
aa(lp1030
I174
aI101
aI187
aI210
aa(lp1031
I205
aI172
aI166
aI220
aa(lp1032
I205
aI25
aI67
aI173
aa(lp1033
I119
aI134
aI135
aI153
aa(lp1034
I121
aI177
aI216
aI200
aa(lp1035
I83
aI105
aI128
aI197
aa(lp1036
I75
aI95
aI119
aI204
aa(lp1037
I198
aI198
aI198
aI221
aa(lp1038
I177
aI26
aI29
aI133
aa(lp1039
I192
aI192
aI192
aI199
aa(lp1040
I229
aI170
aI42
aI200
aa(lp1041
I161
aI104
aI25
aI186
aa(lp1042
I134
aI132
aI140
aI190
aa(lp1043
I48
aI137
aI25
aI141
aa(lp1044
I161
aI144
aI128
aI221
aa(lp1045
I120
aI102
aI53
aI212
aa(lp1046
I177
aI146
aI56
aI204
aa(lp1047
I154
aI141
aI145
aI202
aa(lp1048
I186
aI142
aI129
aI212
aa(lp1049
I135
aI126
aI128
aI200
aa(lp1050
I20
aI118
aI52
aI221
aa(lp1051
I162
aI133
aI51
aI222
aa(lp1052
I127
aI113
aI111
aI220
aa(lp1053
I148
aI111
aI51
aI222
aa(lp1054
I204
aI145
aI156
aI221
aa(lp1055
I182
aI115
aI132
aI217
aa(lp1056
I155
aI136
aI122
aI215
aa(lp1057
I78
aI64
aI53
aI213
aa(lp1058
I139
aI116
aI82
aI222
aa(lp1059
I100
aI81
aI51
aI196
aa(lp1060
I102
aI87
aI54
aI213
aa(lp1061
I164
aI151
aI125
aI210
aa(lp1062
I129
aI117
aI121
aI188
aa(lp1063
I144
aI143
aI143
aI220
aa(lp1064
I100
aI100
aI87
aI220
aa(lp1065
I120
aI131
aI127
aI221
aa(lp1066
I214
aI168
aI55
aI220
aa(lp1067
I151
aI118
aI31
aI179
aa(lp1068
I157
aI142
aI92
aI194
aa(lp1069
I188
aI154
aI137
aI216
aa(lp1070
I1
aI110
aI45
aI203
aa(lp1071
I71
aI119
aI57
aI195
aa(lp1072
I98
aI98
aI29
aI151
aa(lp1073
I134
aI123
aI85
aI187
aa(lp1074
I25
aI25
aI24
aI139
aa(lp1075
I115
aI65
aI45
aI185
aa(lp1076
I148
aI113
aI70
aI205
aa(lp1077
I144
aI68
aI74
aI212
aa(lp1078
I173
aI161
aI159
aI199
aa(lp1079
I120
aI149
aI95
aI206
aa(lp1080
I96
aI124
aI153
aI210
aa(lp1081
I22
aI119
aI127
aI194
aa(lp1082
I53
aI114
aI145
aI192
aa(lp1083
I122
aI140
aI164
aI198
aa(lp1084
I130
aI122
aI118
aI181
aa(lp1085
I194
aI188
aI158
aI196
aa(lp1086
I143
aI131
aI127
aI194
aa(lp1087
I65
aI57
aI58
aI182
aa(lp1088
I152
aI107
aI52
aI191
aa(lp1089
I210
aI202
aI200
aI193
aa(lp1090
I65
aI115
aI73
aI174
aa(lp1091
I72
aI63
aI21
aI165
aa(lp1092
I192
aI190
aI170
aI171
aa(lp1093
I203
aI177
aI162
aI190
aa(lp1094
I185
aI146
aI91
aI181
aa(lp1095
I214
aI168
aI134
aI194
aa(lp1096
I204
aI191
aI189
aI180
aa(lp1097
I159
aI103
aI53
aI186
aa(lp1098
I75
aI118
aI72
aI174
aa(lp1099
I129
aI110
aI85
aI198
aa(lp1100
I91
aI123
aI85
aI195
aa(lp1101
I152
aI120
aI75
aI174
aa(lp1102
I187
aI143
aI83
aI162
aa(lp1103
I163
aI133
aI91
aI180
aa(lp1104
I188
aI164
aI143
aI174
aa(lp1105
I152
aI145
aI139
aI189
aa(lp1106
I196
aI33
aI37
aI147
aa(lp1107
I117
aI99
aI74
aI181
aa(lp1108
I195
aI142
aI160
aI214
aa(lp1109
I111
aI93
aI96
aI190
aa(lp1110
I60
aI158
aI41
aI196
aa(lp1111
I140
aI60
aI22
aI193
aa(lp1112
I150
aI111
aI20
aI183
aa(lp1113
I193
aI93
aI104
aI221
aa(lp1114
I182
aI86
aI54
aI183
aa(lp1115
I74
aI107
aI31
aI151
aa(lp1116
I161
aI104
aI25
aI186
aa(lp1117
I80
aI119
aI47
aI161
aa(lp1118
I81
aI117
aI43
aI104
aa(lp1119
I192
aI108
aI82
aI215
aa(lp1120
I66
aI126
aI45
aI203
aa(lp1121
I55
aI103
aI35
aI127
aa(lp1122
I86
aI99
aI14
aI181
aa(lp1123
I97
aI113
aI20
aI204
aa(lp1124
I127
aI71
aI44
aI209
aa(lp1125
I48
aI137
aI25
aI141
aa(lp1126
I200
aI160
aI37
aI218
aa(lp1127
I87
aI117
aI141
aI143
aa(lp1128
I226
aI201
aI86
aI224
aa(lp1129
I95
aI97
aI113
aI224
aa(lp1130
I70
aI73
aI86
aI224
aa(lp1131
I114
aI108
aI87
aI224
aa(lp1132
I154
aI142
aI98
aI224
aa(lp1133
I195
aI180
aI112
aI224
aa(lp1134
I231
aI211
aI118
aI224
aa(lp1135
I192
aI180
aI114
aI224
aa(lp1136
I151
aI145
aI107
aI224
aa(lp1137
I108
aI105
aI90
aI224
aa(lp1138
I213
aI184
aI78
aI200
aa(lp1139
I221
aI191
aI86
aI199
aa(lp1140
I243
aI189
aI72
aI189
aa(lp1141
I80
aI142
aI116
aI211
aa(lp1142
I57
aI133
aI138
aI212
aa(lp1143
I65
aI136
aI133
aI211
aa(lp1144
I155
aI99
aI73
aI214
aa(lp1145
I81
aI90
aI118
aI214
aa(lp1146
I80
aI108
aI120
aI214
aa(lp1147
I226
aI185
aI103
aI192
aa(lp1148
I209
aI196
aI170
aI208
aa(lp1149
I134
aI132
aI140
aI190
aa(lp1150
I21
aI88
aI226
aI157
aa(lp1151
I164
aI178
aI183
aI214
aa(lp1152
I125
aI164
aI167
aI220
aa(lp1153
I72
aI87
aI110
aI223
aa(lp1154
I114
aI125
aI94
aI203
aa(lp1155
I210
aI113
aI121
aI215
aa(lp1156
I107
aI68
aI66
aI208
aa(lp1157
I137
aI36
aI48
aI209
aa(lp1158
I67
aI58
aI49
aI209
aa(lp1159
I111
aI101
aI100
aI172
aa(lp1160
I90
aI115
aI118
aI214
aa(lp1161
I84
aI106
aI119
aI214
aa(lp1162
I123
aI153
aI175
aI181
aa(lp1163
I111
aI127
aI132
aI214
aa(lp1164
I180
aI111
aI22
aI220
aa(lp1165
I160
aI155
aI157
aI215
aa(lp1166
I165
aI115
aI102
aI223
aa(lp1167
I96
aI110
aI28
aI190
aa(lp1168
I185
aI116
aI56
aI218
aa(lp1169
I97
aI71
aI28
aI163
aa(lp1170
I125
aI82
aI77
aI146
aa(lp1171
I137
aI110
aI111
aI145
aa(lp1172
I173
aI46
aI53
aI184
aa(lp1173
I153
aI139
aI139
aI173
aa(lp1174
I125
aI92
aI121
aI222
aa(lp1175
I37
aI37
aI37
aI197
aa(lp1176
I136
aI141
aI148
aI217
aa(lp1177
I117
aI121
aI130
aI212
aa(lp1178
I75
aI77
aI82
aI228
aa(lp1179
I174
aI174
aI171
aI197
aa(lp1180
I182
aI172
aI140
aI197
aa(lp1181
I142
aI137
aI122
aI234
aa(lp1182
I124
aI127
aI130
aI218
aa(lp1183
I113
aI146
aI177
aI213
aa(lp1184
I66
aI68
aI68
aI206
aa(lp1185
I70
aI70
aI70
aI167
aa(lp1186
I92
aI95
aI91
aI220
aa(lp1187
I181
aI177
aI160
aI219
aa(lp1188
I127
aI127
aI107
aI198
aa(lp1189
I99
aI80
aI62
aI213
aa(lp1190
I133
aI113
aI75
aI211
aa(lp1191
I91
aI91
aI91
aI153
aa(lp1192
I101
aI101
aI102
aI172
aa(lp1193
I106
aI106
aI106
aI187
aa(lp1194
I129
aI99
aI95
aI188
aa(lp1195
I166
aI132
aI88
aI211
aa(lp1196
I183
aI121
aI80
aI205
aa(lp1197
I154
aI132
aI75
aI200
aa(lp1198
I112
aI88
aI37
aI149
aa(lp1199
I134
aI105
aI90
aI185
aa(lp1200
I133
aI103
aI87
aI185
aa(lp1201
I142
aI67
aI59
aI212
aa(lp1202
I153
aI153
aI152
aI211
aa(lp1203
I202
aI178
aI135
aI202
aa(lp1204
I197
aI171
aI127
aI202
aa(lp1205
I149
aI137
aI118
aI196
aa(lp1206
I188
aI150
aI95
aI209
aa(lp1207
I133
aI85
aI35
aI139
aa(lp1208
I93
aI93
aI94
aI91
aa(lp1209
I175
aI167
aI136
aI174
aa(lp1210
I101
aI108
aI117
aI181
aa(lp1211
I236
aI182
aI70
aI147
aa(lp1212
I234
aI181
aI71
aI143
aa(lp1213
I59
aI56
aI46
aI178
aa(lp1214
I121
aI179
aI129
aI225
aa(lp1215
I93
aI93
aI93
aI91
aa(lp1216
I137
aI137
aI136
aI173
aa(lp1217
I124
aI121
aI118
aI174
aa(lp1218
I100
aI187
aI194
aI107
aa(lp1219
I148
aI148
aI148
aI201
aa(lp1220
I161
aI163
aI166
aI190
aa(lp1221
I94
aI94
aI94
aI164
aa(lp1222
I85
aI65
aI54
aI113
aa(lp1223
I171
aI123
aI66
aI220
aa(lp1224
I85
aI78
aI70
aI109
aa(lp1225
I84
aI74
aI76
aI195
aa(lp1226
I60
aI61
aI66
aI186
aa(lp1227
I111
aI111
aI111
aI141
aa(lp1228
I167
aI101
aI37
aI187
aa(lp1229
I114
aI75
aI73
aI150
aa(lp1230
I159
aI137
aI76
aI210
aa(lp1231
I139
aI129
aI111
aI200
aa(lp1232
I141
aI136
aI117
aI200
aa(lp1233
I150
aI142
aI140
aI199
aa(lp1234
I147
aI154
aI136
aI199
aa(lp1235
I148
aI142
aI120
aI201
aa(lp1236
I166
aI164
aI142
aI189
aa(lp1237
I59
aI74
aI84
aI212
aa(lp1238
I177
aI183
aI203
aI220
aa(lp1239
I175
aI166
aI174
aI206
aa(lp1240
I174
aI165
aI174
aI207
aa(lp1241
I200
aI181
aI176
aI212
aa(lp1242
I195
aI175
aI172
aI191
aa(lp1243
I137
aI99
aI54
aI136
aa(lp1244
I82
aI123
aI161
aI222
aa(lp1245
I92
aI131
aI167
aI225
aa(lp1246
I111
aI117
aI132
aI222
aa(lp1247
I115
aI120
aI131
aI228
aa(lp1248
I167
aI67
aI52
aI220
aa(lp1249
I156
aI122
aI84
aI214
aa(lp1250
I184
aI177
aI163
aI216
aa(lp1251
I214
aI214
aI214
aI225
aa(lp1252
I204
aI204
aI204
aI214
aa(lp1253
I206
aI208
aI211
aI220
aa(lp1254
I180
aI186
aI190
aI228
aa(lp1255
I205
aI199
aI200
aI228
aa(lp1256
I196
aI201
aI212
aI228
aa(lp1257
I197
aI173
aI143
aI219
aa(lp1258
I177
aI160
aI141
aI211
aa(lp1259
I181
aI149
aI148
aI224
aa(lp1260
I144
aI121
aI121
aI215
aa(lp1261
I147
aI146
aI146
aI204
aa(lp1262
I162
aI169
aI175
aI202
aa(lp1263
I152
aI160
aI167
aI202
aa(lp1264
I101
aI30
aI24
aI123
aa(lp1265
I120
aI120
aI120
aI109
aa(lp1266
I113
aI123
aI146
aI187
aa(lp1267
I134
aI142
aI161
aI187
aa(lp1268
I149
aI48
aI47
aI221
aa(lp1269
I105
aI138
aI57
aI221
aa(lp1270
I52
aI105
aI143
aI221
aa(lp1271
I185
aI115
aI40
aI221
aa(lp1272
I97
aI97
aI96
aI202
aa(lp1273
I172
aI143
aI90
aI202
aa(lp1274
I177
aI157
aI46
aI200
aa(lp1275
I104
aI113
aI85
aI207
aa(lp1276
I139
aI153
aI166
aI216
aa(lp1277
I170
aI145
aI141
aI167
aa(lp1278
I200
aI91
aI75
aI214
aa(lp1279
I124
aI124
aI124
aI165
aa(lp1280
I163
aI164
aI165
aI169
aa(lp1281
I178
aI178
aI177
aI226
aa(lp1282
I167
aI130
aI76
aI216
aa(lp1283
I92
aI105
aI100
aI208
aa(lp1284
I48
aI48
aI48
aI158
aa(lp1285
I101
aI101
aI101
aI159
aa(lp1286
I30
aI30
aI30
aI128
aa(lp1287
I113
aI111
aI189
aI159
aa(lp1288
I11
aI11
aI11
aI126
aa(lp1289
I124
aI125
aI127
aI220
aa(lp1290
I127
aI76
aI52
aI146
aa(lp1291
I112
aI91
aI32
aI136
aa(lp1292
I127
aI96
aI36
aI155
aa(lp1293
I118
aI66
aI30
aI164
aa(lp1294
I90
aI74
aI109
aI196
aa(lp1295
I56
aI56
aI57
aI168
aa(lp1296
I172
aI168
aI165
aI213
aa(lp1297
I109
aI65
aI65
aI225
aa(lp1298
I178
aI153
aI134
aI210
aa(lp1299
I191
aI189
aI189
aI226
aa(lp1300
I195
aI108
aI112
aI224
aa(lp1301
I112
aI75
aI74
aI208
aa(lp1302
I134
aI65
aI25
aI208
aa(lp1303
I107
aI107
aI107
aI208
aa(lp1304
I154
aI146
aI146
aI208
aa(lp1305
I144
aI176
aI60
aI208
aa(lp1306
I61
aI61
aI61
aI208
aa(lp1307
I176
aI117
aI44
aI215
aa(lp1308
I106
aI100
aI100
aI193
aa(lp1309
I119
aI118
aI25
aI206
aa(lp1310
I158
aI129
aI94
aI233
aa(lp1311
I87
aI103
aI80
aI144
aa(lp1312
I110
aI110
aI110
aI207
aa(lp1313
I82
aI72
aI53
aI170
aa(lp1314
I136
aI105
aI56
aI199
aa(lp1315
I30
aI135
aI110
aI133
aa(lp1316
I194
aI189
aI177
aI221
aa(lp1317
I67
aI164
aI165
aI209
aa(lp1318
I75
aI141
aI126
aI216
aa(lp1319
I78
aI78
aI84
aI126
aa(lp1320
I126
aI122
aI116
aI169
aa(lp1321
I139
aI136
aI116
aI198
aa(lp1322
I152
aI136
aI90
aI179
aa(lp1323
I167
aI174
aI164
aI177
aa(lp1324
I182
aI150
aI106
aI208
aa(lp1325
I184
aI149
aI93
aI205
aa(lp1326
I174
aI175
aI161
aI164
aa(lp1327
I189
aI146
aI92
aI197
aa(lp1328
I136
aI90
aI95
aI193
aa(lp1329
I118
aI121
aI125
aI157
aa(lp1330
I157
aI96
aI50
aI177
aa(lp1331
I172
aI113
aI54
aI226
aa(lp1332
I183
aI105
aI42
aI212
aa(lp1333
I140
aI97
aI68
aI179
aa(lp1334
I157
aI105
aI62
aI182
aa(lp1335
I158
aI130
aI96
aI194
aa(lp1336
I140
aI122
aI109
aI205
aa(lp1337
I199
aI127
aI80
aI189
aa(lp1338
I124
aI96
aI84
aI223
aa(lp1339
I178
aI72
aI57
aI220
aa(lp1340
I225
aI209
aI217
aI215
aa(lp1341
I143
aI144
aI135
aI218
aa(lp1342
I135
aI81
aI30
aI226
aa(lp1343
I153
aI153
aI153
aI197
aa(lp1344
I134
aI118
aI96
aI186
aa(lp1345
I120
aI119
aI113
aI153
aa(lp1346
I105
aI88
aI71
aI167
aa(lp1347
I146
aI129
aI118
aI171
aa(lp1348
I92
aI88
aI74
aI216
aa(lp1349
I195
aI157
aI102
aI222
aa(lp1350
I92
aI53
aI21
aI206
aa(lp1351
I141
aI120
aI89
aI184
aa(lp1352
I171
aI149
aI100
aI180
aa(lp1353
I194
aI186
aI173
aI211
aa(lp1354
I180
aI141
aI149
aI212
aa(lp1355
I190
aI181
aI163
aI205
aa(lp1356
I190
aI163
aI146
aI218
aa(lp1357
I161
aI107
aI67
aI176
aa(lp1358
I136
aI87
aI74
aI179
aa(lp1359
I124
aI132
aI136
aI147
aa(lp1360
I132
aI106
aI82
aI181
aa(lp1361
I189
aI136
aI41
aI207
aa(lp1362
I171
aI64
aI52
aI208
aa(lp1363
I113
aI142
aI56
aI210
aa(lp1364
I194
aI118
aI44
aI205
aa(lp1365
I193
aI176
aI50
aI204
aa(lp1366
I125
aI55
aI45
aI183
aa(lp1367
I158
aI67
aI148
aI185
aa(lp1368
I182
aI119
aI103
aI196
aa(lp1369
I154
aI74
aI47
aI195
aa(lp1370
I182
aI103
aI78
aI208
aa(lp1371
I157
aI151
aI105
aI185
aa(lp1372
I178
aI158
aI87
aI190
aa(lp1373
I147
aI157
aI55
aI182
aa(lp1374
I102
aI103
aI20
aI166
aa(lp1375
I133
aI97
aI70
aI189
aa(lp1376
I109
aI79
aI106
aI188
aa(lp1377
I175
aI93
aI48
aI202
aa(lp1378
I156
aI153
aI86
aI187
aa(lp1379
I147
aI143
aI117
aI211
aa(lp1380
I111
aI118
aI75
aI213
aa(lp1381
I155
aI152
aI92
aI218
aa(lp1382
I145
aI154
aI162
aI219
aa(lp1383
I153
aI144
aI128
aI216
aa(lp1384
I149
aI139
aI140
aI217
aa(lp1385
I110
aI132
aI135
aI217
aa(lp1386
I83
aI109
aI118
aI213
aa(lp1387
I150
aI107
aI130
aI210
aa(lp1388
I138
aI117
aI113
aI216
aa(lp1389
I143
aI105
aI113
aI206
aa(lp1390
I131
aI123
aI114
aI210
aa(lp1391
I131
aI136
aI144
aI212
aa(lp1392
I149
aI135
aI127
aI217
aa(lp1393
I172
aI118
aI62
aI214
aa(lp1394
I129
aI86
aI55
aI214
aa(lp1395
I136
aI158
aI154
aI214
aa(lp1396
I148
aI128
aI127
aI214
aa(lp1397
I95
aI109
aI83
aI214
aa(lp1398
I150
aI141
aI141
aI214
aa(lp1399
I162
aI162
aI169
aI214
aa(lp1400
I96
aI132
aI172
aI214
aa(lp1401
I127
aI142
aI153
aI214
aa(lp1402
I140
aI117
aI112
aI214
aa(lp1403
I187
aI129
aI78
aI214
aa(lp1404
I65
aI94
aI115
aI220
aa(lp1405
I110
aI148
aI158
aI214
aa(lp1406
I93
aI68
aI110
aI214
aa(lp1407
I126
aI153
aI168
aI214
aa(lp1408
I132
aI142
aI168
aI214
aa(lp1409
I101
aI134
aI132
aI214
aa(lp1410
I152
aI147
aI152
aI214
aa(lp1411
I122
aI128
aI136
aI214
aa(lp1412
I144
aI83
aI36
aI191
aa(lp1413
I168
aI126
aI43
aI198
aa(lp1414
I84
aI124
aI140
aI228
aa(lp1415
I94
aI117
aI143
aI160
aa(lp1416
I143
aI101
aI83
aI199
aa(lp1417
I109
aI126
aI137
aI179
aa(lp1418
I89
aI97
aI124
aI211
aa(lp1419
I100
aI84
aI88
aI178
aa(lp1420
I110
aI72
aI59
aI210
aa(lp1421
I85
aI92
aI90
aI216
aa(lp1422
I89
aI90
aI86
aI197
aa(lp1423
I133
aI145
aI139
aI240
aa(lp1424
I149
aI149
aI149
aI220
aa(lp1425
I130
aI142
aI158
aI224
aa(lp1426
I140
aI148
aI185
aI227
aa(lp1427
I96
aI113
aI145
aI228
aa(lp1428
I100
aI109
aI109
aI217
aa(lp1429
I130
aI139
aI164
aI214
aa(lp1430
I124
aI128
aI110
aI220
aa(lp1431
I128
aI132
aI113
aI217
aa(lp1432
I107
aI124
aI148
aI208
aa(lp1433
I151
aI127
aI91
aI212
aa(lp1434
I142
aI150
aI135
aI217
aa(lp1435
I52
aI94
aI126
aI206
aa(lp1436
I62
aI111
aI155
aI211
aa(lp1437
I127
aI55
aI49
aI197
aa(lp1438
I153
aI126
aI57
aI203
aa(lp1439
I138
aI137
aI86
aI209
aa(lp1440
I44
aI87
aI70
aI197
aa(lp1441
I157
aI122
aI54
aI216
aa(lp1442
I212
aI104
aI104
aI211
aa(lp1443
I111
aI109
aI109
aI202
aa(lp1444
I137
aI143
aI146
aI216
aa(lp1445
I156
aI99
aI90
aI209
aa(lp1446
I147
aI123
aI122
aI212
aa(lp1447
I124
aI126
aI130
aI208
aa(lp1448
I59
aI75
aI94
aI130
aa(lp1449
I103
aI98
aI70
aI187
aa(lp1450
I127
aI124
aI99
aI224
aa(lp1451
I102
aI84
aI89
aI206
aa(lp1452
I134
aI121
aI79
aI201
aa(lp1453
I148
aI126
aI149
aI206
aa(lp1454
I138
aI130
aI140
aI182
aa(lp1455
I136
aI134
aI83
aI190
aa(lp1456
I88
aI84
aI77
aI193
aa(lp1457
I90
aI87
aI80
aI196
aa(lp1458
I169
aI145
aI44
aI192
aa(lp1459
I112
aI105
aI58
aI180
aa(lp1460
I68
aI103
aI63
aI181
aa(lp1461
I124
aI60
aI45
aI201
aa(lp1462
I153
aI69
aI44
aI214
aa(lp1463
I119
aI104
aI105
aI224
aa(lp1464
I204
aI46
aI32
aI124
aa(lp1465
I110
aI110
aI110
aI197
aa(lp1466
I180
aI122
aI117
aI211
aa(lp1467
I142
aI100
aI83
aI192
aa(lp1468
I157
aI58
aI57
aI176
aa(lp1469
I202
aI108
aI69
aI169
aa(lp1470
I132
aI154
aI175
aI222
aa(lp1471
I123
aI147
aI170
aI222
aa(lp1472
I129
aI152
aI173
aI222
aa(lp1473
I123
aI146
aI170
aI216
aa(lp1474
I123
aI146
aI170
aI216
aa(lp1475
I123
aI146
aI170
aI216
aa(lp1476
I123
aI146
aI170
aI216
aa(lp1477
I129
aI151
aI173
aI222
aa(lp1478
I124
aI148
aI170
aI222
aa(lp1479
I122
aI147
aI169
aI222
aa(lp1480
I125
aI148
aI171
aI216
aa(lp1481
I125
aI148
aI171
aI216
aa(lp1482
I125
aI148
aI172
aI216
aa(lp1483
I125
aI148
aI172
aI216
aa(lp1484
I130
aI152
aI173
aI222
aa(lp1485
I130
aI152
aI173
aI222
aa(lp1486
I136
aI162
aI187
aI222
aa(lp1487
I120
aI144
aI169
aI216
aa(lp1488
I120
aI144
aI169
aI216
aa(lp1489
I129
aI152
aI173
aI222
aa(lp1490
I127
aI150
aI172
aI222
aa(lp1491
I127
aI150
aI172
aI222
aa(lp1492
I127
aI150
aI172
aI222
aa(lp1493
I123
aI147
aI170
aI222
aa(lp1494
I125
aI148
aI171
aI216
aa(lp1495
I125
aI148
aI171
aI216
aa(lp1496
I132
aI154
aI175
aI222
aa(lp1497
I132
aI154
aI174
aI222
aa(lp1498
I122
aI146
aI169
aI222
aa(lp1499
I122
aI146
aI169
aI222
aa(lp1500
I120
aI144
aI169
aI216
aa(lp1501
I133
aI160
aI186
aI222
aa(lp1502
I136
aI162
aI187
aI222
aa(lp1503
I136
aI162
aI187
aI222
aa(lp1504
I123
aI147
aI171
aI216
aa(lp1505
I126
aI150
aI171
aI222
aa(lp1506
I118
aI143
aI168
aI216
aa(lp1507
I126
aI149
aI171
aI222
aa(lp1508
I121
aI145
aI169
aI216
aa(lp1509
I125
aI148
aI172
aI216
aa(lp1510
I131
aI152
aI174
aI216
aa(lp1511
I127
aI149
aI173
aI216
aa(lp1512
I44
aI114
aI207
aI216
aa(lp1513
I204
aI94
aI183
aI216
aa(lp1514
I228
aI146
aI73
aI216
aa(lp1515
I59
aI123
aI208
aI216
aa(lp1516
I48
aI115
aI205
aI216
aa(lp1517
I117
aI142
aI167
aI216
aa(lp1518
I49
aI117
aI207
aI216
aa(lp1519
I53
aI119
aI207
aI216
aa(lp1520
I61
aI124
aI209
aI216
aa(lp1521
I64
aI163
aI196
aI215
aa(lp1522
I51
aI117
aI205
aI216
aa(lp1523
I70
aI128
aI207
aI216
aa(lp1524
I58
aI119
aI205
aI216
aa(lp1525
I55
aI119
aI205
aI216
aa(lp1526
I196
aI73
aI63
aI222
aa(lp1527
I195
aI72
aI62
aI222
aa(lp1528
I156
aI112
aI182
aI216
aa(lp1529
I205
aI46
aI30
aI188
aa(lp1530
I161
aI85
aI69
aI214
aa(lp1531
I122
aI56
aI37
aI215
aa(lp1532
I123
aI59
aI41
aI215
aa(lp1533
I121
aI56
aI38
aI215
aa(lp1534
I116
aI52
aI34
aI215
aa(lp1535
I122
aI57
aI39
aI215
aa(lp1536
I147
aI130
aI10
aI202
aa(lp1537
I203
aI92
aI69
aI224
aa(lp1538
I56
aI169
aI77
aI216
aa(lp1539
I57
aI175
aI78
aI222
aa(lp1540
I66
aI180
aI71
aI222
aa(lp1541
I46
aI175
aI51
aI222
aa(lp1542
I228
aI144
aI70
aI216
aa(lp1543
I206
aI111
aI189
aI216
aa(lp1544
I228
aI143
aI64
aI216
aa(lp1545
I228
aI145
aI72
aI216
aa(lp1546
I228
aI149
aI77
aI216
aa(lp1547
I194
aI69
aI56
aI216
aa(lp1548
I195
aI75
aI62
aI216
aa(lp1549
I198
aI89
aI77
aI216
aa(lp1550
I195
aI72
aI59
aI216
aa(lp1551
I83
aI133
aI156
aI177
aa(lp1552
I45
aI130
aI205
aI214
aa(lp1553
I49
aI148
aI63
aI185
aa(lp1554
I154
aI89
aI176
aI216
aa(lp1555
I154
aI90
aI176
aI216
aa(lp1556
I156
aI93
aI177
aI216
aa(lp1557
I153
aI89
aI175
aI216
aa(lp1558
I155
aI92
aI177
aI216
aa(lp1559
I155
aI92
aI177
aI216
aa(lp1560
I157
aI98
aI177
aI216
aa(lp1561
I154
aI89
aI176
aI216
aa(lp1562
I153
aI88
aI175
aI216
aa(lp1563
I156
aI93
aI177
aI216
aa(lp1564
I154
aI92
aI175
aI216
aa(lp1565
I154
aI90
aI176
aI216
aa(lp1566
I157
aI95
aI177
aI216
aa(lp1567
I155
aI95
aI176
aI216
aa(lp1568
I65
aI121
aI166
aI216
aa(lp1569
I47
aI167
aI70
aI216
aa(lp1570
I17
aI17
aI17
aI170
aa(lp1571
I34
aI34
aI34
aI135
aa(lp1572
I208
aI46
aI32
aI175
aa(lp1573
I202
aI46
aI30
aI164
aa(lp1574
I202
aI44
aI29
aI164
aa(lp1575
I210
aI45
aI29
aI168
aa(lp1576
I209
aI47
aI32
aI158
aa(lp1577
I194
aI194
aI194
aI170
aa(lp1578
I192
aI192
aI192
aI158
aa(lp1579
I208
aI46
aI30
aI181
aa(lp1580
I49
aI49
aI49
aI149
aa(lp1581
I46
aI46
aI46
aI162
aa(lp1582
I47
aI47
aI47
aI159
aa(lp1583
I48
aI48
aI48
aI157
aa(lp1584
I46
aI46
aI46
aI159
aa(lp1585
I30
aI30
aI30
aI173
aa(lp1586
I183
aI183
aI183
aI212
aa(lp1587
I182
aI182
aI182
aI212
aa(lp1588
I182
aI182
aI182
aI212
aa(lp1589
I182
aI182
aI182
aI212
aa(lp1590
I181
aI181
aI181
aI212
aa(lp1591
I182
aI182
aI182
aI212
aa(lp1592
I182
aI182
aI182
aI212
aa(lp1593
I182
aI182
aI182
aI212
aa(lp1594
I182
aI182
aI182
aI212
aa(lp1595
I182
aI182
aI182
aI212
aa(lp1596
I182
aI182
aI182
aI212
aa(lp1597
I182
aI182
aI182
aI212
aa(lp1598
I182
aI182
aI182
aI212
aa(lp1599
I182
aI182
aI182
aI212
aa(lp1600
I182
aI182
aI182
aI212
aa(lp1601
I182
aI182
aI182
aI212
aa(lp1602
I181
aI181
aI181
aI212
aa(lp1603
I182
aI182
aI182
aI212
aa(lp1604
I183
aI183
aI183
aI212
aa(lp1605
I182
aI182
aI182
aI212
aa(lp1606
I182
aI182
aI182
aI212
aa(lp1607
I182
aI182
aI182
aI212
aa(lp1608
I182
aI182
aI182
aI212
aa(lp1609
I182
aI182
aI182
aI212
aa(lp1610
I38
aI38
aI38
aI181
aa(lp1611
I40
aI40
aI40
aI182
aa(lp1612
I39
aI39
aI39
aI186
aa(lp1613
I210
aI42
aI25
aI72
aa(lp1614
I203
aI0
aI0
aI134
aa(lp1615
I133
aI133
aI133
aI224
aa(lp1616
I109
aI109
aI109
aI138
aa(lp1617
I41
aI41
aI41
aI151
aa(lp1618
I206
aI169
aI57
aI174
aa(lp1619
I45
aI45
aI45
aI220
aa(lp1620
I206
aI206
aI206
aI234
aa(lp1621
I53
aI53
aI53
aI217
aa(lp1622
I199
aI199
aI199
aI217
aa(lp1623
I52
aI52
aI52
aI221
aa(lp1624
I169
aI169
aI169
aI194
aa(lp1625
I216
aI149
aI148
aI110
aa(lp1626
I88
aI88
aI88
aI220
aa(lp1627
I145
aI145
aI145
aI220
aa(lp1628
I65
aI65
aI65
aI224
aa(lp1629
I199
aI199
aI199
aI224
aa(lp1630
I214
aI64
aI51
aI216
aa(lp1631
I57
aI124
aI223
aI224
aa(lp1632
I203
aI136
aI136
aI114
aa(lp1633
I221
aI221
aI221
aI220
aa(lp1634
I45
aI45
aI45
aI220
aa(lp1635
I240
aI160
aI73
aI215
aa(lp1636
I84
aI135
aI236
aI195
aa(lp1637
I224
aI148
aI66
aI195
aa(lp1638
I60
aI112
aI218
aI195
aa(lp1639
I768
aI768
aI768
aI768
aa(lp1640
I768
aI768
aI768
aI768
aa(lp1641
I768
aI768
aI768
aI768
aa(lp1642
I768
aI768
aI768
aI768
aa(lp1643
I768
aI768
aI768
aI768
aa(lp1644
I768
aI768
aI768
aI768
aa(lp1645
I768
aI768
aI768
aI768
aa(lp1646
I768
aI768
aI768
aI768
aa(lp1647
I768
aI768
aI768
aI768
aa(lp1648
I768
aI768
aI768
aI768
aa(lp1649
I768
aI768
aI768
aI768
aa(lp1650
I768
aI768
aI768
aI768
aa(lp1651
I768
aI768
aI768
aI768
aa(lp1652
I768
aI768
aI768
aI768
aa(lp1653
I768
aI768
aI768
aI768
aa(lp1654
I768
aI768
aI768
aI768
aa(lp1655
I768
aI768
aI768
aI768
aa(lp1656
I768
aI768
aI768
aI768
aa(lp1657
I768
aI768
aI768
aI768
aa(lp1658
I768
aI768
aI768
aI768
aa(lp1659
I768
aI768
aI768
aI768
aa(lp1660
I768
aI768
aI768
aI768
aa(lp1661
I768
aI768
aI768
aI768
aa(lp1662
I768
aI768
aI768
aI768
aa(lp1663
I768
aI768
aI768
aI768
aa(lp1664
I768
aI768
aI768
aI768
aa(lp1665
I768
aI768
aI768
aI768
aa(lp1666
I768
aI768
aI768
aI768
aa(lp1667
I768
aI768
aI768
aI768
aa(lp1668
I768
aI768
aI768
aI768
aa(lp1669
I768
aI768
aI768
aI768
aa(lp1670
I768
aI768
aI768
aI768
aa(lp1671
I768
aI768
aI768
aI768
aa(lp1672
I768
aI768
aI768
aI768
aa(lp1673
I768
aI768
aI768
aI768
aa(lp1674
I768
aI768
aI768
aI768
aa(lp1675
I768
aI768
aI768
aI768
aa(lp1676
I768
aI768
aI768
aI768
aa(lp1677
I768
aI768
aI768
aI768
aa(lp1678
I768
aI768
aI768
aI768
aa(lp1679
I768
aI768
aI768
aI768
aa(lp1680
I768
aI768
aI768
aI768
aa(lp1681
I768
aI768
aI768
aI768
aa(lp1682
I768
aI768
aI768
aI768
aa(lp1683
I768
aI768
aI768
aI768
aa(lp1684
I768
aI768
aI768
aI768
aa(lp1685
I768
aI768
aI768
aI768
aa(lp1686
I768
aI768
aI768
aI768
aa(lp1687
I768
aI768
aI768
aI768
aa(lp1688
I768
aI768
aI768
aI768
aa(lp1689
I768
aI768
aI768
aI768
aa(lp1690
I768
aI768
aI768
aI768
aa(lp1691
I768
aI768
aI768
aI768
aa(lp1692
I768
aI768
aI768
aI768
aa(lp1693
I768
aI768
aI768
aI768
aa(lp1694
I768
aI768
aI768
aI768
aa(lp1695
I768
aI768
aI768
aI768
aa(lp1696
I768
aI768
aI768
aI768
aa(lp1697
I768
aI768
aI768
aI768
aa(lp1698
I768
aI768
aI768
aI768
aa(lp1699
I768
aI768
aI768
aI768
aa(lp1700
I768
aI768
aI768
aI768
aa(lp1701
I768
aI768
aI768
aI768
aa(lp1702
I768
aI768
aI768
aI768
aa(lp1703
I768
aI768
aI768
aI768
aatp1704
.